ccollections
defaultdict
p0
(c__builtin__
dict
p1
tp2
Rp3
S'7f955f8befec20e26f39ac30bcc46f73f4a4e5602284ef090e25063a1864713c'
p4
(dp5
S'1.16'
p6
S'./test/test-keyboard-observer.js'
p7
sS'1.17'
p8
S'./test/test-keyboard-observer.js'
p9
ssS'99464166279f021030870cae9b37a2610635f61f8e550a60bd890bae0b34a893'
p10
(dp11
S'1.16'
p12
S'./test/pagemod-test-helpers.js'
p13
ssS'2079ad5bd36ba5013c4e5ae093bac73cf8a90c890772278ba18b309613ff1c18'
p14
(dp15
S'1.16'
p16
S'./lib/sdk/event/utils.js'
p17
sS'1.17'
p18
S'./lib/sdk/event/utils.js'
p19
ssS'20a2bba2ebfa0d0ea5b7a7341def54f50d8477348bdbf4bfdc3eeaab74e992b3'
p20
(dp21
S'1.16'
p22
S'./lib/sdk/content/worker.js'
p23
ssS'93d34c0baf70320841510ffa94ab6fea8a64d020d3b2003dce48d7b41e60df0c'
p24
(dp25
S'1.16'
p26
S'./test/fixtures/test-page-worker.js'
p27
sS'1.17'
p28
S'./test/fixtures/test-page-worker.js'
p29
ssS'305d32afbd310903922de18deb4e6d3e98d54a4f2b8fdbca5f1f651cd58419fc'
p30
(dp31
S'1.16'
p32
S'./test/test-l10n-locale.js'
p33
sS'1.17'
p34
S'./test/test-l10n-locale.js'
p35
ssS'8449d0ab696fe3645a75fecd6538621b366747ce0d0bfe6f5d0a3a36ff074f57'
p36
(dp37
S'1.16'
p38
S'./test/test-xpcom.js'
p39
sS'1.17'
p40
S'./test/test-xpcom.js'
p41
ssS'723bc9494c553d5fa314efdd95c33c1d71fa649263f854f11b83ac2e860abdeb'
p42
(dp43
S'1.16'
p44
S'./test/test-test-memory.js'
p45
sS'1.17'
p46
S'./test/test-test-memory.js'
p47
ssS'25e5d6448c5bd6170247497b8c656d4c5e2a7e7a4765602d4be7a516272b0f3b'
p48
(dp49
S'1.16'
p50
S'./test/test-httpd.js'
p51
sS'1.17'
p52
S'./test/test-httpd.js'
p53
ssS'9109813404c43822814ad0f586a5d84442b3213f2fc72caa51edcb90dff8aebe'
p54
(dp55
S'1.16'
p56
S'./lib/sdk/windows/loader.js'
p57
sS'1.17'
p58
S'./lib/sdk/windows/loader.js'
p59
ssS'e7501b6dbe72920c0a0521c239225d9511652a976c90c4527b3a810bcce0c16a'
p60
(dp61
S'1.16'
p62
S'./test/addons/require/sub-folder/module.js'
p63
sS'1.17'
p64
S'./test/addons/require/sub-folder/module.js'
p65
ssS'7d2723de77a29909e0b32aeaaa11af574df66d583ed185c949142100707a7814'
p66
(dp67
S'1.16'
p68
S'./test/test-registry.js'
p69
sS'1.17'
p70
S'./test/test-registry.js'
p71
ssS'81ef751f6c9c26702ba5fdacc5ce8912cc68f345f76c20805f29b24acb09abb9'
p72
(dp73
S'1.17'
p74
S'./examples/reddit-panel/lib/main.js'
p75
ssS'49b4810548f488bab46c2c6aa8c9462c824ff6e6c2d6db5defb34f9edf976fa1'
p76
(dp77
S'1.16'
p78
S'./lib/sdk/request.js'
p79
sS'1.17'
p80
S'./lib/sdk/request.js'
p81
ssS'b7c2ea83987b01fc39abaacf508641b2ee276d14970ab561b3e65a2c3e964a7c'
p82
(dp83
S'1.16'
p84
S'./test/addons/l10n/main.js'
p85
ssS'af5ff60aa766062ebd9fc4fe1acb8a2a8a3b080284da8093ce08f066c392ffb4'
p86
(dp87
S'1.17'
p88
S'./lib/sdk/deprecated/traits-worker.js'
p89
ssS'824c918d4172ec2114dec0cbb85489bff1f279f2661a6e25b397347e92834c88'
p90
(dp91
S'1.16'
p92
S'./lib/sdk/event/chrome.js'
p93
sS'1.17'
p94
S'./lib/sdk/event/chrome.js'
p95
ssS'fb0167b154442179fdec54e0e08fc302b7f147e871595d56194cc36d0f1c6614'
p96
(dp97
S'1.17'
p98
S'./lib/sdk/util/dispatcher.js'
p99
ssS'd3d68506da5308fd0c05b3321fafd17671171229b3b6b3834dc7e0adc61127f4'
p100
(dp101
S'1.16'
p102
S'./examples/reading-data/data/sample.html'
p103
sS'1.17'
p104
S'./examples/reading-data/data/sample.html'
p105
ssS'ab0f762370ce26631fe5db1a5182b98e177bf39fe4cc72695b15fbba8fae0db9'
p106
(dp107
S'1.16'
p108
S'./test/test-native-loader.js'
p109
sS'1.17'
p110
S'./test/test-native-loader.js'
p111
ssS'8d39593519ea2c450cb84ce38d546c625d78dcf30ed38923a57f9a65b0287560'
p112
(dp113
S'1.17'
p114
S'./lib/sdk/content/worker.js'
p115
ssS'64a853f51ea2f8f4e3e40755785a7332819d7c87784b05988360350651457d38'
p116
(dp117
S'1.17'
p118
S'./test/addons/contributors/main.js'
p119
ssS'fa7b6ee86af720984447663ff061dc70f60571b5b5dbd481dd6c07c97c014158'
p120
(dp121
S'1.16'
p122
S'./lib/sdk/tabs/worker.js'
p123
sS'1.17'
p124
S'./lib/sdk/tabs/worker.js'
p125
ssS'41c60031aad519d82bb37f4e70255e7ed8e1a028689ff089a8e011b0c910c99c'
p126
(dp127
S'1.16'
p128
S'./test/fixtures/native-addon-test/utils/index.js'
p129
sS'1.17'
p130
S'./test/fixtures/native-addon-test/utils/index.js'
p131
ssS'1403c6feb967bb84c5e394a238c432815ce81462ae85daccfd22ace5a28c7f4e'
p132
(dp133
S'1.16'
p134
S'./test/traits/assert.js'
p135
sS'1.17'
p136
S'./test/traits/assert.js'
p137
ssS'236e51535f2bfad9f3ebef2949a9f422218cd5f2d250ee92fedee5398feabe90'
p138
(dp139
S'1.17'
p140
S'./test/test-net-url.js'
p141
ssS'd2033ffd50e847a1f983d8051e3703021bcbe9bbf6a1f30ff799bb20497a74d1'
p142
(dp143
S'1.16'
p144
S'./test/fixtures/test-sidebar-addon-global.html'
p145
sS'1.17'
p146
S'./test/fixtures/test-sidebar-addon-global.html'
p147
ssS'f15301859937ca021f4ca7856441d60917891b178444b28fde0baaa4ad585268'
p148
(dp149
S'1.16'
p150
S'./lib/sdk/deprecated/window-utils.js'
p151
sS'1.17'
p152
S'./lib/sdk/deprecated/window-utils.js'
p153
ssS'3d5dc310cbd255649e5006254e562463e2a18e5f81c9dda800cfdc56a850fd88'
p154
(dp155
S'1.16'
p156
S'./test/test-system-input-output.js'
p157
sS'1.17'
p158
S'./test/test-system-input-output.js'
p159
ssS'a5e60e519a8a0611410c939a105f8ae6c59796e04d88825cdb03035206ce2417'
p160
(dp161
S'1.16'
p162
S'./python-lib/cuddlefish/tests/bug-652227-files/packages/explicit-lib/alt2-lib/loader.js'
p163
sS'1.17'
p164
S'./python-lib/cuddlefish/tests/bug-652227-files/packages/explicit-lib/alt2-lib/loader.js'
p165
ssS'f1aadadbb740bf9990c776fb02d312b6f2db82a1b7b2173eac9d3d39853743ab'
p166
(dp167
S'1.16'
p168
S'./lib/sdk/console/plain-text.js'
p169
ssS'3723cd1aa6d6ba597b30b1b53e423129c8d49988692529bdf1e162ea2307bd89'
p170
(dp171
S'1.16'
p172
S'./python-lib/cuddlefish/tests/linker-files/four/lib/main.js'
p173
sS'1.17'
p174
S'./python-lib/cuddlefish/tests/linker-files/four/lib/main.js'
p175
ssS'e1e38c8c76c395e0f8cfbbefad40b39a3c344c3b9c0a480425486cc5585b8855'
p176
(dp177
S'1.16'
p178
S'./lib/sdk/input/frame.js'
p179
sS'1.17'
p180
S'./lib/sdk/input/frame.js'
p181
ssS'32bb793cf3934237b6ce512e05fee771705e9ff1c5ca22d8f030cbe6937e0215'
p182
(dp183
S'1.16'
p184
S'./test/test-sequence.js'
p185
sS'1.17'
p186
S'./test/test-sequence.js'
p187
ssS'5c233f75ade0d8bf9cdd73c15059f78e32dab693018da9677ddbfa4da4cca8a4'
p188
(dp189
S'1.16'
p190
S'./test/fixtures/native-addon-test/node_modules/test-math/lib/sqrt.js'
p191
sS'1.17'
p192
S'./test/fixtures/native-addon-test/node_modules/test-math/lib/sqrt.js'
p193
ssS'5f8967c283df86b62fc9354baf58ca16a2f366bab71ee02c51721b0d58ca706c'
p194
(dp195
S'1.16'
p196
S'./test/addons/main/main.js'
p197
sS'1.17'
p198
S'./test/addons/main/main.js'
p199
ssS'dcefd6d42133f0c229885936f1d6a3e975d02a6c4f20f2ab33e3c4ec0cd1b9ce'
p200
(dp201
S'1.16'
p202
S'./test/fixtures/native-addon-test/node_modules/test-math/index.js'
p203
sS'1.17'
p204
S'./test/fixtures/native-addon-test/node_modules/test-math/index.js'
p205
ssS'4e9ad1ba87889526027adb4fc08c1d0fcd734817d7ec1fd273f69f55648b00dc'
p206
(dp207
S'1.16'
p208
S'./test/test-collection.js'
p209
sS'1.17'
p210
S'./test/test-collection.js'
p211
ssS'08bb802a0dd8f4feae14160364f6e7f1385d8ff76382f71380e04e2a69231d61'
p212
(dp213
S'1.16'
p214
S'./lib/sdk/tab/events.js'
p215
sS'1.17'
p216
S'./lib/sdk/tab/events.js'
p217
ssS'e23a2a4e2d7c2b41ebcdd8ffc0679df7140eb7f52e1eebabf827a88182643c59'
p218
(dp219
S'1.16'
p220
S'./examples/annotator/data/jquery-1.4.2.min.js'
p221
sS'1.17'
p222
S'./examples/annotator/data/jquery-1.4.2.min.js'
p223
ssS'305bf5d76c0d2b16b28e843dfa4290a5fa13b65518d7618582dc2244b89acb28'
p224
(dp225
S'1.16'
p226
S'./lib/sdk/ui/sidebar/view.js'
p227
sS'1.17'
p228
S'./lib/sdk/ui/sidebar/view.js'
p229
ssS'd4f9d4598b45dc5ed7260a81f3e81706a9cf1a9a9ed207f1fab81ec5741654a7'
p230
(dp231
S'1.16'
p232
S'./lib/sdk/test/utils.js'
p233
sS'1.17'
p234
S'./lib/sdk/test/utils.js'
p235
ssS'4c8836432de307824640b041ea2e8e12fd5f8e372270ae05db929d2611d86552'
p236
(dp237
S'1.16'
p238
S'./test/fixtures/loader/errors/boomer.js'
p239
sS'1.17'
p240
S'./test/fixtures/loader/errors/boomer.js'
p241
ssS'af4cc23aa0bf0a5afd62cf75bf6fc0e133a79f121ef1987f07bf78cfa6307105'
p242
(dp243
S'1.16'
p244
S'./test/test-ui-frame.js'
p245
ssS'25b7ca57be3e097cee0086a605047461fb11674a0fdc6af0f57c7fd6ff897a88'
p246
(dp247
S'1.16'
p248
S'./lib/sdk/io/buffer.js'
p249
ssS'f0abbc9c81bedf3cd68bc5c3b9acf34d40b763e3b97e99bc58af53f2b50260c7'
p250
(dp251
S'1.16'
p252
S'./test/addons/require/multiple/b.js'
p253
sS'1.17'
p254
S'./test/addons/require/multiple/b.js'
p255
ssS'7511ae1e3550fbb215912824ff80a6f6e22acb00a9108824d3b87d43eaeec043'
p256
(dp257
S'1.16'
p258
S'./test/test-ui-action-button.js'
p259
ssS'bedd6f3fb60f3ed8575cd835fc12fc9a2d98e0de241f48b8786bffa215582c55'
p260
(dp261
S'1.16'
p262
S'./test/event/helpers.js'
p263
sS'1.17'
p264
S'./test/event/helpers.js'
p265
ssS'3c4524d70d85b6bffa08b2f18b6f7cef02a8f00024545bbb451192ff95fa957c'
p266
(dp267
S'1.16'
p268
S'./test/test-unsupported-skip.js'
p269
sS'1.17'
p270
S'./test/test-unsupported-skip.js'
p271
ssS'10d940660b82b8a53cd9b3dd94f0795481e074f4b6b866438a035e7bb811ace8'
p272
(dp273
S'1.16'
p274
S'./test/test-context-menu.js'
p275
ssS'425f0c98d6688de7814cf33517791bf2ad4076ad0ec01f9183b5b61c04359766'
p276
(dp277
S'1.17'
p278
S'./lib/sdk/core/promise.js'
p279
ssS'0d826b04d2ac4473aef9dd1fdfd9f91bf4017df740ebe25581240e783a5c2157'
p280
(dp281
S'1.16'
p282
S'./test/modules/green.js'
p283
sS'1.17'
p284
S'./test/modules/green.js'
p285
ssS'ddce3c79adccd0506c995c56dea0830b951a0761b5155695507e63f084762e84'
p286
(dp287
S'1.16'
p288
S'./lib/sdk/windows/firefox.js'
p289
sS'1.17'
p290
S'./lib/sdk/windows/firefox.js'
p291
ssS'7e8f934f7b0e0881b169d9aee0978264356ee7c29c0914dc397c3a12b5c5bbc3'
p292
(dp293
S'1.16'
p294
S'./lib/sdk/core/namespace.js'
p295
sS'1.17'
p296
S'./lib/sdk/core/namespace.js'
p297
ssS'a026bdd15215e0b4428c2bf6b65940625b7f468f335725a6edab26d99d025cfa'
p298
(dp299
S'1.16'
p300
S'./test/modules/exportsEquals.js'
p301
sS'1.17'
p302
S'./test/modules/exportsEquals.js'
p303
ssS'995df60e1bb07473dfe420d1450e807619139400151e4d911484ab226293fee1'
p304
(dp305
S'1.16'
p306
S'./test/addons/private-browsing-supported/test-tabs.js'
p307
sS'1.17'
p308
S'./test/addons/private-browsing-supported/test-tabs.js'
p309
ssS'91f162e99982591f365a9ab995fbef184359f9e0f8099d54cb53b55251ef838b'
p310
(dp311
S'1.16'
p312
S'./test/fixtures/native-addon-test/dir/dummy.js'
p313
sS'1.17'
p314
S'./test/fixtures/native-addon-test/dir/dummy.js'
p315
ssS'18b5cc22cbdd9733fb3024198358311f49ea88737e6a4cbb9cdce762af639aeb'
p316
(dp317
S'1.16'
p318
S'./test/test-environment.js'
p319
sS'1.17'
p320
S'./test/test-environment.js'
p321
ssS'ba12d82dc155a8b149e13dfe90f5952f2c6be377156affc4d7a71b791b8245e7'
p322
(dp323
S'1.16'
p324
S'./lib/sdk/page-mod.js'
p325
ssS'39847448a33ee239739157600c403320158b4af5bf3b006a07cb3b2b7248e25b'
p326
(dp327
S'1.16'
p328
S'./examples/reading-data/lib/main.js'
p329
ssS'a1ee76cb70e27551773933e6a7a015ac32f1592e5f6ac5cf3bce719f6f0559a0'
p330
(dp331
S'1.16'
p332
S'./lib/sdk/loader/sandbox.js'
p333
ssS'893b93dbb692efc537b00e49f45047aa28f3fe88dad83c3104454d5e3361c2e0'
p334
(dp335
S'1.17'
p336
S'./test/addons/private-browsing-supported/test-panel.js'
p337
ssS'44bc62edc9ab7473d338b1542fc72148c76928e1fad0bcdf07a37d4476c6eefb'
p338
(dp339
S'0.0.11'
p340
S'./data/bootstrap.js'
p341
ssS'64e7ab33202d16c97a2fd909132a4d7ffb02a8ccf0a1967d029e41ecb7c6a900'
p342
(dp343
S'1.16'
p344
S'./test/modules/dupeNested.js'
p345
sS'1.17'
p346
S'./test/modules/dupeNested.js'
p347
ssS'd979bbe7a9a3324fbd8bf90998759ef4827b28df5ef474c9d9d278a05b32f337'
p348
(dp349
S'1.16'
p350
S'./lib/sdk/places/events.js'
p351
sS'1.17'
p352
S'./lib/sdk/places/events.js'
p353
ssS'09655c98ebdfe15a68a415e887906d92023b1a0f40ff879fb83eef2f81bc3b33'
p354
(dp355
S'1.17'
p356
S'./lib/sdk/windows.js'
p357
ssS'8c5cef8933a6783c32c10e6b32581556547bccae2b013ccb8b3b3eb49cb93766'
p358
(dp359
S'1.16'
p360
S'./test/test-widget.js'
p361
ssS'eafd5fc2f46bf9997f24d43f0ae11d326c5a20b21fd1def4874dc49c8c4cc48c'
p362
(dp363
S'1.16'
p364
S'./lib/sdk/util/registry.js'
p365
sS'1.17'
p366
S'./lib/sdk/util/registry.js'
p367
ssS'0ca8f27dff680aafb7bb50173fa61c5b43c688db2ded989b958a2b4b07077c3b'
p368
(dp369
S'1.16'
p370
S'./lib/sdk/indexed-db.js'
p371
sS'1.17'
p372
S'./lib/sdk/indexed-db.js'
p373
ssS'5e075ffd837861804cbab604e66c4b9a50d622424be53e384556cbc3871ddf94'
p374
(dp375
S'1.17'
p376
S'./lib/sdk/panel.js'
p377
ssS'840eb74838e80ee32ba1af7981e1c22fea534c5f23681cde0deddf43662c0f9b'
p378
(dp379
S'1.16'
p380
S'./lib/sdk/window/namespace.js'
p381
sS'1.17'
p382
S'./lib/sdk/window/namespace.js'
p383
ssS'190158fe608cee8f650e93fbd8a03d415ab5644e1f9d163818ba41ebde3a7a92'
p384
(dp385
S'1.16'
p386
S'./test/test-byte-streams.js'
p387
sS'1.17'
p388
S'./test/test-byte-streams.js'
p389
ssS'4f6f3c165388cbf693c2f61cc7c8d63c0ee3af7ff812436ef2d80e122fbd43f1'
p390
(dp391
S'1.17'
p392
S'./test/test-content-events.js'
p393
ssS'9cd9fb828cbeedb4505c116be5447582199f04214f3c3f0d1a82146e40751135'
p394
(dp395
S'1.16'
p396
S'./test/test-events.js'
p397
sS'1.17'
p398
S'./test/test-events.js'
p399
ssS'5c4f9dbf0af2c173018cd6816aed6038efb16f2952ca8917d7b1c9d48a7120b4'
p400
(dp401
S'1.17'
p402
S'./test/pagemod-test-helpers.js'
p403
ssS'74728fa4d2832c12d93e89ae1c6bba79742d1f690db8719f1bf259c4942ba714'
p404
(dp405
S'1.17'
p406
S'./test/test-ui-sidebar.js'
p407
ssS'bf86318bea76fe35b320a55dfe20ed282c6c262c2ce40f7473d9741ec0d5446b'
p408
(dp409
S'1.17'
p410
S'./lib/sdk/places/utils.js'
p411
ssS'0bb6507c3f678ae4c92c6ddadc0481d361b6db967f85a206d6156f9359fe2652'
p412
(dp413
S'1.16'
p414
S'./lib/sdk/private-browsing/utils.js'
p415
sS'1.17'
p416
S'./lib/sdk/private-browsing/utils.js'
p417
ssS'933eaeb2db78609c8a5f35b3689d1d57ab8d894116fbf782198fc3e5dd65eda1'
p418
(dp419
S'1.16'
p420
S'./lib/sdk/base64.js'
p421
sS'1.17'
p422
S'./lib/sdk/base64.js'
p423
ssS'484a77f360943f1bce26863889a26f5fe2e8879d31b420e04cd9d6f4909d6cae'
p424
(dp425
S'1.16'
p426
S'./lib/diffpatcher/rebase.js'
p427
sS'1.17'
p428
S'./lib/diffpatcher/rebase.js'
p429
ssS'4034cad01e0614b5ec5472e7276419157863753cc4c6b14eb3f8be0f383d6a6b'
p430
(dp431
S'1.16'
p432
S'./test/test-hotkeys.js'
p433
sS'1.17'
p434
S'./test/test-hotkeys.js'
p435
ssS'f4993b88d2fe330917321def4adaffc89c668d186a6775d888c350a405313ef2'
p436
(dp437
S'1.17'
p438
S'./test/test-plain-text-console.js'
p439
ssS'8ddde841a8f437c6cfdfc8bcdfd70d07e92b9660d1777ef152f2575f59a54f52'
p440
(dp441
S'1.16'
p442
S'./test/test-weak-set.js'
p443
sS'1.17'
p444
S'./test/test-weak-set.js'
p445
ssS'c00fc216b7b6270abcd1eab40b9573f4a0a80520140988de8d0919f3c140a4d1'
p446
(dp447
S'1.17'
p448
S'./test/addons/tab-close-on-startup/main.js'
p449
ssS'62e3c510d3f69ae14fe17092b9ab9f0af8f5af463a97d20c777418a5b0e8e1f6'
p450
(dp451
S'1.16'
p452
S'./test/modules/traditional1.js'
p453
sS'1.17'
p454
S'./test/modules/traditional1.js'
p455
ssS'fe7914a7df1ae9628f86b359c5299506bfcc1653a4fa7370bd15230ff8b9e5d7'
p456
(dp457
S'1.16'
p458
S'./test/addons/predefined-id-with-at/lib/main.js'
p459
sS'1.17'
p460
S'./test/addons/predefined-id-with-at/lib/main.js'
p461
ssS'90e48edc6bd51a89dee5e7deae8e51eafb56a42939eb4baeac8334ecfc7ec8bd'
p462
(dp463
S'1.16'
p464
S'./test/modules/add.js'
p465
sS'1.17'
p466
S'./test/modules/add.js'
p467
ssS'e2835fd9d3c65555416f04df1b0829ce720ed65b2578c200aac0231a4a39555f'
p468
(dp469
S'1.16'
p470
S'./lib/toolkit/loader.js'
p471
ssS'9987c7e794bb8d3cd2e6e0176cfda4691caef7ae13d58019dbb3bc24f7f5f1a4'
p472
(dp473
S'1.16'
p474
S'./lib/sdk/url.js'
p475
ssS'd4a7aa5a2f241ba4f7ff2417e198fb0ab2ed30c428ca92315a850b8f6b67b051'
p476
(dp477
S'1.16'
p478
S'./test/addons/places/tests/test-places-events.js'
p479
ssS'f119f24786d42ba32656ad3f87e8042e4f7384374e4dde1aa8e6881e52151c08'
p480
(dp481
S'1.16'
p482
S'./test/addons/simple-prefs-regression/lib/main.js'
p483
sS'1.17'
p484
S'./test/addons/simple-prefs-regression/lib/main.js'
p485
ssS'4539042dfd5c082a3c62025d82ad5c6c3d86cf9f3dca21058cafd20dd010e0e6'
p486
(dp487
S'1.17'
p488
S'./test/test-context-menu.js'
p489
ssS'2cf1ea217646b0eadb184c81b9d1279ce6a8a7f19f97de013fc6f2697de17f97'
p490
(dp491
S'1.16'
p492
S'./test/test-system-events.js'
p493
ssS'b596e9cbe48b81e3190328650aab0c38ce033e2c083e2bb375def6a30089c59d'
p494
(dp495
S'1.16'
p496
S'./test/fixtures/chrome-worker/onmessage.js'
p497
sS'1.17'
p498
S'./test/fixtures/chrome-worker/onmessage.js'
p499
ssS'97362b1fdd8a29c02f1ce9ee3b2a2c03d3cf9199febf61e3272044721cc0fc43'
p500
(dp501
S'1.16'
p502
S'./test/private-browsing/windows.js'
p503
sS'1.17'
p504
S'./test/private-browsing/windows.js'
p505
ssS'ff4ba2a3fd150a75f8d98ce2d78c89012bc00c0d02ecd56555e712b02774f03b'
p506
(dp507
S'1.16'
p508
S'./python-lib/cuddlefish/tests/static-files/packages/barbeque/lib/bar-module.js'
p509
sS'1.17'
p510
S'./python-lib/cuddlefish/tests/static-files/packages/barbeque/lib/bar-module.js'
p511
ssS'8ef8fc7b29bd0239a38109a8b8c677c447f62a8767e9f1b26721826ec6235876'
p512
(dp513
S'1.16'
p514
S'./test/addons/privileged-panel/main.js'
p515
sS'1.17'
p516
S'./test/addons/privileged-panel/main.js'
p517
ssS'2c77e7daf68b56f97a430980d2996723cb02afb81da83a9bdc42b73019d76e3f'
p518
(dp519
S'1.16'
p520
S'./test/test-text-streams.js'
p521
sS'1.17'
p522
S'./test/test-text-streams.js'
p523
ssS'2c2ac2d0c4babab73a2cf948db675547fd438ca7275cacc8e33355b2a6f63207'
p524
(dp525
S'1.16'
p526
S'./lib/sdk/panel/events.js'
p527
sS'1.17'
p528
S'./lib/sdk/panel/events.js'
p529
ssS'b2701a5614d26054bd0758dc4d0bd040efd98492b7ad2f96013d82514b81429f'
p530
(dp531
S'1.16'
p532
S'./test/test-tab.js'
p533
ssS'c78ac044ccd91f1b11db5a61e2bdf59696c85144e9a1d0f58f9f87878f05b125'
p534
(dp535
S'1.16'
p536
S'./lib/sdk/util/iteration.js'
p537
sS'1.17'
p538
S'./lib/sdk/util/iteration.js'
p539
ssS'024492cc7c039897bab20250aa1aee15eda07b7246ef3adebc05d38e00184cb5'
p540
(dp541
S'1.16'
p542
S'./test/modules/badFirst.js'
p543
sS'1.17'
p544
S'./test/modules/badFirst.js'
p545
ssS'209a66c618a972f22097014e78786514996c8f375d95be8985a33888c482ab68'
p546
(dp547
S'1.16'
p548
S'./test/sidebar/utils.js'
p549
sS'1.17'
p550
S'./test/sidebar/utils.js'
p551
ssS'bb1234d2de4a572d27868c69cdf4614b1805e5444e50b41f38cbc81b57512266'
p552
(dp553
S'1.17'
p554
S'./test/addons/content-permissions/main.js'
p555
ssS'79ab9c60a6f283ebdb290fd432db893889641de0939166140519c98698c7b82a'
p556
(dp557
S'1.16'
p558
S'./lib/sdk/content/loader.js'
p559
sS'1.17'
p560
S'./lib/sdk/content/loader.js'
p561
ssS'fbb692bbd64e4c5c7905421273af7318775a626e736435ba4b8ea725bc20ce87'
p562
(dp563
S'1.16'
p564
S'./python-lib/cuddlefish/tests/preferences-files/packages/simple-prefs/lib/main.js'
p565
sS'1.17'
p566
S'./python-lib/cuddlefish/tests/preferences-files/packages/simple-prefs/lib/main.js'
p567
ssS'cdac73b4b315a46b62c4cdd25c0db02d6f13260f3642921e5a7483b6e5f00f7b'
p568
(dp569
S'1.17'
p570
S'./lib/sdk/l10n/locale.js'
p571
ssS'f176095726f849a958c38ea105484a6d932444030c13b1f6c3006d5b387db204'
p572
(dp573
S'1.17'
p574
S'./test/test-sandbox.js'
p575
ssS'6de6160205c09fb1847a17ab58334a28640e6ebdaf59df4b63b823aaeaec2045'
p576
(dp577
S'1.16'
p578
S'./test/test-windows.js'
p579
sS'1.17'
p580
S'./test/test-windows.js'
p581
ssS'fbdf6a4618f252c3eae07f3118ca98ae34e761b7514d6f4a534e0a0967b03c96'
p582
(dp583
S'1.16'
p584
S'./test/test-windows-common.js'
p585
ssS'2c5d55d6f299911e16fdb3a0464a333e902a6dd10a433fe93c03ada08981d4f4'
p586
(dp587
S'1.16'
p588
S'./python-lib/cuddlefish/tests/linker-files/three-deps/three-a/lib/main.js'
p589
sS'1.17'
p590
S'./python-lib/cuddlefish/tests/linker-files/three-deps/three-a/lib/main.js'
p591
ssS'017871c44695b495e7fde5f2b4fbcfd8712dd0cc5e9c2f09ba618cebea37e1ea'
p592
(dp593
S'1.16'
p594
S'./lib/sdk/hotkeys.js'
p595
sS'1.17'
p596
S'./lib/sdk/hotkeys.js'
p597
ssS'7295a0cfad155968634eeef75549abe5f6ccd00bcf4de840f6482e1a43035bfc'
p598
(dp599
S'1.16'
p600
S'./lib/sdk/deprecated/events.js'
p601
sS'1.17'
p602
S'./lib/sdk/deprecated/events.js'
p603
ssS'74fa6c0451ebb7d021da5151f768ab812f22730cad3a785d3f6cb25dbc868d89'
p604
(dp605
S'1.16'
p606
S'./test/test-ui-sidebar-private-browsing.js'
p607
sS'1.17'
p608
S'./test/test-ui-sidebar-private-browsing.js'
p609
ssS'6fa9aab5518494b408facfb71de37e94e0060a836c4b0ceab21934df1a137329'
p610
(dp611
S'1.16'
p612
S'./test/modules/setExports.js'
p613
sS'1.17'
p614
S'./test/modules/setExports.js'
p615
ssS'ba4f13885a19f9e97b7495c1e83f69ca8269a7c7e6f99ec3f8274eb2a644d561'
p616
(dp617
S'1.16'
p618
S'./lib/sdk/ui/id.js'
p619
sS'1.17'
p620
S'./lib/sdk/ui/id.js'
p621
ssS'46e9d05280858dba027c13e8050af42a938ab704a8fb6bcf844e26e39fdbbf69'
p622
(dp623
S'1.16'
p624
S'./test/addons/packed/main.js'
p625
sS'1.17'
p626
S'./test/addons/packed/main.js'
p627
ssS'37c5e884cfa05a41fc0574cf6c1978fcbeb56f9250cb3f402569dc70d91b8439'
p628
(dp629
S'1.17'
p630
S'./lib/sdk/url.js'
p631
ssS'bb2fb408ab6ad717c3d77bf9236660b18c6a3879a6c1160be11c3d79336b6fca'
p632
(dp633
S'1.16'
p634
S'./test/test-heritage.js'
p635
sS'1.17'
p636
S'./test/test-heritage.js'
p637
ssS'6d10fe535dc588f1ca87f41b2d4ad2d9fc4e4aabf5353e00daf8a280cbf2b204'
p638
(dp639
S'1.17'
p640
S'./test/addons/chrome/main.js'
p641
ssS'390cc8da0f7e3ef172ce8008537bd71eb10087cc9b9076dea6d6d73cca129c22'
p642
(dp643
S'1.16'
p644
S'./test/test-promise.js'
p645
ssS'd792453986f14a5c573f7a01a3dfb20c0dd8df7a5631015f604107e470bcee12'
p646
(dp647
S'1.17'
p648
S'./lib/sdk/core/reference.js'
p649
ssS'80204d13ff5430aaf8b05cd90d7febca0f49cfb23d24a8b1c9f59f15ac2a215e'
p650
(dp651
S'1.16'
p652
S'./examples/library-detector/data/library-detector.js'
p653
sS'1.17'
p654
S'./examples/library-detector/data/library-detector.js'
p655
ssS'9c02fa45c58a3147b448ca90039f4e292891c3434738fdb12084b47ca9e8f950'
p656
(dp657
S'1.17'
p658
S'./test/test-test-loader.js'
p659
ssS'912331019051db5849e0a981e2849654b11ecce07d941786ed891ab97677c3a5'
p660
(dp661
S'1.16'
p662
S'./test/fixtures/loader/exceptions/main.js'
p663
sS'1.17'
p664
S'./test/fixtures/loader/exceptions/main.js'
p665
ssS'ee03ad3ccb0c9bb20abb48c4dafa07589fd490f8f6c68d14d49697de0a558e97'
p666
(dp667
S'1.16'
p668
S'./lib/sdk/system/events.js'
p669
ssS'557dfb8fcd4f3865fe311e85e3683dcc0e6eafa2e5836327b4db10544531bc9d'
p670
(dp671
S'1.16'
p672
S'./lib/sdk/test/httpd.js'
p673
sS'1.17'
p674
S'./lib/sdk/test/httpd.js'
p675
ssS'c1304f091c0d631bb2abfeef9b7305ed05caaffb6c3d571dfd41da4fec445f6a'
p676
(dp677
S'1.17'
p678
S'./test/test-window-utils-private-browsing.js'
p679
ssS'b67685d1261561428890eb1d28d877635b23a1d5e401697f4d56f21eac165d59'
p680
(dp681
S'1.16'
p682
S'./lib/sdk/preferences/event-target.js'
p683
sS'1.17'
p684
S'./lib/sdk/preferences/event-target.js'
p685
ssS'ba71da6f7472715bb484f355735317df99177300f027defe5e1b59b88d0b401d'
p686
(dp687
S'1.16'
p688
S'./lib/sdk/event/core.js'
p689
sS'1.17'
p690
S'./lib/sdk/event/core.js'
p691
ssS'4d7a99f0ebd80311337ce8b2509b534e1996065bfd3bce1b6b3b18be22cba9a5'
p692
(dp693
S'1.16'
p694
S'./test/fixtures/loader/errors/main.js'
p695
sS'1.17'
p696
S'./test/fixtures/loader/errors/main.js'
p697
ssS'84d798d3a41ae684657ef7184958b4ecfa8366b4b5981643adac1455dd572884'
p698
(dp699
S'1.16'
p700
S'./test/modules/orange.js'
p701
sS'1.17'
p702
S'./test/modules/orange.js'
p703
ssS'3e28aab57d74a45bde265b378279905c2280dd142999739fbd65a85ee589d573'
p704
(dp705
S'1.16'
p706
S'./test/addons/l10n/data/test-localization.html'
p707
sS'1.17'
p708
S'./test/addons/l10n-properties/data/test-localization.html'
p709
ssS'6d2217af486554698a4750ecbaaf1a59b7ef2999dba61cc5c03a3a151f565d3f'
p710
(dp711
S'1.16'
p712
S'./test/test-selection.js'
p713
sS'1.17'
p714
S'./test/test-selection.js'
p715
ssS'7556987f0354284df114518a9ce3e4b6d3d38f68285dbc223590f3a7b027355c'
p716
(dp717
S'1.16'
p718
S'./test/fixtures/loader/unsupported/fennec.js'
p719
sS'1.17'
p720
S'./test/fixtures/loader/unsupported/fennec.js'
p721
ssS'6c8a8c465b82273030ef56511337361f48205d90e6ee1b58b0855a1d3f1becc9'
p722
(dp723
S'1.17'
p724
S'./lib/sdk/content/sandbox.js'
p725
ssS'ac60f03372b114bef6cdc7d10bde55a92f2186ed3bd222bea8431fb67a689175'
p726
(dp727
S'1.16'
p728
S'./lib/sdk/input/browser.js'
p729
sS'1.17'
p730
S'./lib/sdk/input/browser.js'
p731
ssS'76b29b87110e9d2964b797a94ab287dd64d6ff2593bf62239bada0715fdd423f'
p732
(dp733
S'1.16'
p734
S'./test/fixtures/loader/json/nodotjson.json.js'
p735
sS'1.17'
p736
S'./test/fixtures/loader/json/nodotjson.json.js'
p737
ssS'5c474fd65bdc90b8d3ba4a5cfd765b3b50f3047442c1edbdbec7cc7fb1ba0b6e'
p738
(dp739
S'1.16'
p740
S'./lib/sdk/ui/frame/view.js'
p741
sS'1.17'
p742
S'./lib/sdk/ui/frame/view.js'
p743
ssS'4bec9b062c1311fbfaccd6755b1780856c3477f787a929c886916a0b79700360'
p744
(dp745
S'1.16'
p746
S'./lib/sdk/lang/weak-set.js'
p747
sS'1.17'
p748
S'./lib/sdk/lang/weak-set.js'
p749
ssS'9815807d9a0af173946d1bc517b3b2ecf838002de7a48edfea0108be390109ab'
p750
(dp751
S'1.16'
p752
S'./test/addons/places/tests/test-places-host.js'
p753
sS'1.17'
p754
S'./test/addons/places/tests/test-places-host.js'
p755
ssS'5f6822634daa110d4c0c16ed0a1b4ded7f9204f2db51a318490a0d2dd501cf82'
p756
(dp757
S'1.16'
p758
S'./lib/sdk/test/runner.js'
p759
sS'1.17'
p760
S'./lib/sdk/test/runner.js'
p761
ssS'94c7d81885cf26e3153a54aeeea083051987da55503a627589baa3456c3a23f3'
p762
(dp763
S'1.16'
p764
S'./lib/sdk/page-worker.js'
p765
ssS'3551d72cc24b3083dd180253a042f2d237454c3ebf534aeca9a4fb820cc2f4c9'
p766
(dp767
S'1.16'
p768
S'./test/test-window-utils2.js'
p769
sS'1.17'
p770
S'./test/test-window-utils2.js'
p771
ssS'85a92b75531e0b21590bdee9b541344f34c8a56819c1b58cbb1f08606fcf20bb'
p772
(dp773
S'1.16'
p774
S'./lib/sdk/context-menu.js'
p775
sS'1.17'
p776
S'./lib/sdk/context-menu.js'
p777
ssS'7232b98f15f6ff8c3ab17be9684b46363cc12add3802a8be5fe59613e5f6f451'
p778
(dp779
S'1.16'
p780
S'./test/test-api-utils.js'
p781
sS'1.17'
p782
S'./test/test-api-utils.js'
p783
ssS'84bcaa261bc58cb698c6a01711073012c7aa12ac51a03aed6e3098e4402b017e'
p784
(dp785
S'1.16'
p786
S'./lib/sdk/input/system.js'
p787
sS'1.17'
p788
S'./lib/sdk/input/system.js'
p789
ssS'2d7b0be860cdf45fa88b07ce579f2552b4aac094517c0a57d18e0c2adc117e4d'
p790
(dp791
S'1.17'
p792
S'./test/test-libxul.js'
p793
ssS'60fdc0e0ea59e4500c4200303a805d515e7b29a40d12d5f9279a43e2d17e64c8'
p794
(dp795
S'1.17'
p796
S'./test/fixtures/child-process-scripts.js'
p797
ssS'35a4355858eebd788f39ec410da2dbb15871a63b76b5f6b7b419b3de1bee29e5'
p798
(dp799
S'1.16'
p800
S'./test/test-content-symbiont.js'
p801
ssS'db3d5ef6c49cdd355d888d4722663bc269cdecf8cc40743d92c2aaf37edde58a'
p802
(dp803
S'1.16'
p804
S'./lib/sdk/l10n/core.js'
p805
ssS'83aacedb43124174db65c6b0827adc5e350e70940252f44e24b949ec5c1325b7'
p806
(dp807
S'1.16'
p808
S'./lib/sdk/addon/runner.js'
p809
sS'1.17'
p810
S'./lib/sdk/addon/runner.js'
p811
ssS'737d23addaa93e271ee46a8f771bd5e5bbd9153218e0769195e3c5bdf691fa3a'
p812
(dp813
S'1.16'
p814
S'./examples/annotator/data/annotation/annotation.js'
p815
sS'1.17'
p816
S'./examples/annotator/data/annotation/annotation.js'
p817
ssS'0f4bc72e396b3ab0148cb8f06f2b6aab767840ffff8b3f4fab918f0f21ff4f52'
p818
(dp819
S'1.16'
p820
S'./test/private-browsing/global.js'
p821
sS'1.17'
p822
S'./test/private-browsing/global.js'
p823
ssS'0691dd318f98030b0a747d3869283006d1babd281b4e06e1e8eaa62736ff36c1'
p824
(dp825
S'1.16'
p826
S'./lib/sdk/windows.js'
p827
ssS'2630c8b079608beb7de988f5afb0a730f31ec50c9a2c619ca6f04d05f127b8bd'
p828
(dp829
S'1.16'
p830
S'./test/test-page-worker.js'
p831
ssS'f2a60f6c758a8395d4e7fcfeae395491803865319a028ae023f1adb5ca39f784'
p832
(dp833
S'1.16'
p834
S'./test/fixtures/test-contentScriptFile.js'
p835
sS'1.17'
p836
S'./test/fixtures/test-contentScriptFile.js'
p837
ssS'7d0ebeff3a162882bcdd353992e0274eb3af89d8dbe50a3eefcce12af9b3fc10'
p838
(dp839
S'1.17'
p840
S'./test/test-ui-toolbar.js'
p841
ssS'caea684f5678faccd6947b0c521c84c3bbff6e2de1f558d558afbf307ae6011b'
p842
(dp843
S'1.16'
p844
S'./lib/sdk/ui/frame/view.html'
p845
sS'1.17'
p846
S'./lib/sdk/ui/frame/view.html'
p847
ssS'b27fc385041248ee3817092600bc07286402de622263118bf4991e43dbafdc4c'
p848
(dp849
S'1.16'
p850
S'./lib/sdk/util/sequence.js'
p851
sS'1.17'
p852
S'./lib/sdk/util/sequence.js'
p853
ssS'ac9399679c392278b73bcbed0931139c36a0ed7f160d4a71173e595b6a38cfdd'
p854
(dp855
S'1.16'
p856
S'./test/fixtures/sandbox-normal.js'
p857
sS'1.17'
p858
S'./test/fixtures/sandbox-normal.js'
p859
ssS'9433def78ff30d569b3ac57643456d2416fdddf27cb84f47393806a793807c0e'
p860
(dp861
S'1.16'
p862
S'./test/fixtures/loader/cycles/main.js'
p863
sS'1.17'
p864
S'./test/fixtures/loader/cycles/main.js'
p865
ssS'156890940fbf4fb224a1ccf75f33b95735153fa3dd1716cb37031bfd22bfb6a0'
p866
(dp867
S'1.16'
p868
S'./lib/sdk/deprecated/traits.js'
p869
sS'1.17'
p870
S'./lib/sdk/deprecated/traits.js'
p871
ssS'4606b4f2a221732ae68fb33ddf9522bf38b67c606955b0296cc6b87dec612543'
p872
(dp873
S'1.16'
p874
S'./test/fixtures/loader/missing-twice/main.js'
p875
sS'1.17'
p876
S'./test/fixtures/loader/missing-twice/main.js'
p877
ssS'dc2c4e2a90fb45fb366e8ac9b2780dc607948002c7632df0ca754fd5db804261'
p878
(dp879
S'1.16'
p880
S'./lib/sdk/windows/tabs-fennec.js'
p881
ssS'f8dedab671b4e3320d219b3cb6faf41420621dfc20bbcd2d8590ab07f71cdf48'
p882
(dp883
S'1.16'
p884
S'./test/test-window-utils.js'
p885
sS'1.17'
p886
S'./test/test-window-utils.js'
p887
ssS'e951b3a0b0fb5059a52430cd7d627f2ec9ac925d360d379bfb295a2e1c622d27'
p888
(dp889
S'1.17'
p890
S'./lib/sdk/l10n/core.js'
p891
ssS'b741b95535142fedd600671534117bd71e1bc0014962a9c330764f36d2e2bf16'
p892
(dp893
S'1.17'
p894
S'./test/test-dispatcher.js'
p895
ssS'76963df111826b5d34135c071a9eb568c5f79af5eba8cdeb9287388b7241f1dc'
p896
(dp897
S'1.16'
p898
S'./test/fixtures/test-content-symbiont.js'
p899
sS'1.17'
p900
S'./test/fixtures/test-content-symbiont.js'
p901
ssS'a632f47bb80b5ba66c314c59c59e8f35ead7c6158e69455346601e074fdf3685'
p902
(dp903
S'1.16'
p904
S'./test/addons/places/tests/test-places-favicon.js'
p905
ssS'3ee59c88de39c197a5d38a582ae00a4fffb721c69cc1f426de6c5c2695f194f1'
p906
(dp907
S'1.16'
p908
S'./test/modules/lion.js'
p909
sS'1.17'
p910
S'./test/modules/lion.js'
p911
ssS'a85e496e8df9b4a9fa0a79c4bf20d12c68e43904d22d3c39c6439bb85089dab7'
p912
(dp913
S'1.16'
p914
S'./test/test-event-utils.js'
p915
sS'1.17'
p916
S'./test/test-event-utils.js'
p917
ssS'96bb03cfc055b08172394d1562f3a4141b05be324d7e3f35fbe67c5c44b1a874'
p918
(dp919
S'1.16'
p920
S'./test/private-browsing/tabs.js'
p921
sS'1.17'
p922
S'./test/private-browsing/tabs.js'
p923
ssS'af88bc8c1ae5dc988e0552e848a725f2eb2bc72d380aa1b81acac7c5e3eeee4a'
p924
(dp925
S'1.16'
p926
S'./test/test-list.js'
p927
sS'1.17'
p928
S'./test/test-list.js'
p929
ssS'f5b1e134192fa8b5cf1ad15394b69c61b1ba1908b28e237d0fc50a320c1ef74e'
p930
(dp931
S'1.16'
p932
S'./test/addons/private-browsing-supported/test-private-browsing.js'
p933
sS'1.17'
p934
S'./test/addons/private-browsing-supported/test-private-browsing.js'
p935
ssS'dcaf2728b84a82c0004a73bdc24155a6aca9f3d6566c5c7e4a874d17722645d0'
p936
(dp937
S'1.16'
p938
S'./test/test-dom.js'
p939
sS'1.17'
p940
S'./test/test-dom.js'
p941
ssS'c226eec6495a172d7dab06f86031e2a0c5332cf75fa9392f05e7f7a0dd5b6d1e'
p942
(dp943
S'1.16'
p944
S'./lib/sdk/input/window.js'
p945
sS'1.17'
p946
S'./lib/sdk/input/window.js'
p947
ssS'96cb2b07a9177b94ff1e461a984dc38d0bf3efbd5ef4b2f7817f907c505965e9'
p948
(dp949
S'1.16'
p950
S'./test/addons/private-browsing-supported/test-page-mod.js'
p951
sS'1.17'
p952
S'./test/addons/private-browsing-supported/test-page-mod.js'
p953
ssS'a852609af5f67b06b573e77ff1575a8c6f7f274732bb22cd3d53f3969e457777'
p954
(dp955
S'1.16'
p956
S'./test/addons/require/memory.js'
p957
sS'1.17'
p958
S'./test/addons/require/memory.js'
p959
ssS'62973dc97cdb1bf8acf69b1ab209d996c49317939d0543d7c9d54e7cce465997'
p960
(dp961
S'1.16'
p962
S'./test/addons/content-permissions/main.js'
p963
ssS'e7e7171eb711589c533decd98c8cacca6b2932d0d063a42d2868c66d015d2e04'
p964
(dp965
S'1.16'
p966
S'./test/fixtures/chrome-worker/onerror.js'
p967
sS'1.17'
p968
S'./test/fixtures/chrome-worker/onerror.js'
p969
ssS'd9975eb746732c84526261a9944a865e9e0676d4fcc32f4858f379b4db872151'
p970
(dp971
S'1.17'
p972
S'./test/test-child_process.js'
p973
ssS'89dd7d9bbb494165d598dbc0a2f5cb4b4a8c8347e13cf80973c07a978a811a63'
p974
(dp975
S'1.16'
p976
S'./test/addons/simple-prefs-regression/app-extension/defaults/preferences/prefs.js'
p977
sS'1.17'
p978
S'./test/addons/simple-prefs-regression/app-extension/defaults/preferences/prefs.js'
p979
ssS'66251d884fd403de902266d0ec52293ea81d578d44d2c9edad52bbc26f3fcadb'
p980
(dp981
S'1.17'
p982
S'./lib/sdk/private-browsing.js'
p983
ssS'a91bf17462cc55e48b0c24bb694606863c822263ecb09cfb72b7a60e5b225a28'
p984
(dp985
S'1.16'
p986
S'./test/addons/translators/main.js'
p987
ssS'6ed8fff401b5d7653c8907068318654aae7940777bdcadbfe98707f80cd484e3'
p988
(dp989
S'1.16'
p990
S'./lib/sdk/deprecated/traits-worker.js'
p991
ssS'eae97c3cdbc86d3d000cc4cc607e88ac3c3699a905191f75989b38d25cf460a3'
p992
(dp993
S'1.16'
p994
S'./lib/sdk/system.js'
p995
ssS'eb44a43d523de36e9f3ba0061302054504bdeb7816542825a221a9b3036e86ee'
p996
(dp997
S'1.16'
p998
S'./lib/sdk/io/stream.js'
p999
sS'1.17'
p1000
S'./lib/sdk/io/stream.js'
p1001
ssS'b41fc8cfab836073e7969788c0462be20acae474e355e7415e2c555081f5141e'
p1002
(dp1003
S'1.16'
p1004
S'./test/buffers/test-write-types.js'
p1005
sS'1.17'
p1006
S'./test/buffers/test-write-types.js'
p1007
ssS'cb6875635c922b6e12eb8670ff8ee1b5df8f042698092ec10d3fb8fc90be8ea7'
p1008
(dp1009
S'1.16'
p1010
S'./test/addons/chrome/main.js'
p1011
ssS'edd07429fc043150ffdbd66e33c8a7b0604e33ac617c86f2e772021c9371d4ba'
p1012
(dp1013
S'1.17'
p1014
S'./lib/sdk/ui/toolbar.js'
p1015
ssS'f513c797c9e50aa62911e5315857894befddf3e6294e6ab8a4232310f8294fbd'
p1016
(dp1017
S'1.16'
p1018
S'./lib/sdk/places/host/host-tags.js'
p1019
sS'1.17'
p1020
S'./lib/sdk/places/host/host-tags.js'
p1021
ssS'f67ef0cc32444d1f91d734fe13a4e2b571d32778d7daa83882bd183f4e2f5b4b'
p1022
(dp1023
S'1.16'
p1024
S'./test/test-namespace.js'
p1025
sS'1.17'
p1026
S'./test/test-namespace.js'
p1027
ssS'443639e3f715525002e2608c6d7230b433ee514093bdf5d4ba8afdbcf8ddabd2'
p1028
(dp1029
S'1.17'
p1030
S'./test/addons/private-browsing-supported/test-windows.js'
p1031
ssS'a065a0866e353c9cb72ce28b423753ba582c4b409b2fe16c30e91fe5d1637ba0'
p1032
(dp1033
S'1.16'
p1034
S'./test/addons/private-browsing-supported/test-panel.js'
p1035
ssS'496bf6db74acfa6bb35eeb448133cbe121a7e99438d592be2268923eada8733e'
p1036
(dp1037
S'1.16'
p1038
S'./test/fixtures/native-addon-test/newmodule/lib/file.js'
p1039
sS'1.17'
p1040
S'./test/fixtures/native-addon-test/newmodule/lib/file.js'
p1041
ssS'2128cc8bda6e5595c196d0a5b82c6bcd988ba3253594b258c6af0e85eb986c06'
p1042
(dp1043
S'1.16'
p1044
S'./test/test-tab-utils.js'
p1045
sS'1.17'
p1046
S'./test/test-tab-utils.js'
p1047
ssS'0221ee1e9d9ca5820473887a05dd2b0f6a81d42711bc5cb4559ab26128408af8'
p1048
(dp1049
S'1.16'
p1050
S'./test/fixtures/jsm-package/index.js'
p1051
sS'1.17'
p1052
S'./test/fixtures/jsm-package/index.js'
p1053
ssS'2c96b696e8fed9749e38f0fcfa9f0b0fe038625a3e647d4bf7d5e9bfb5a37713'
p1054
(dp1055
S'1.16'
p1056
S'./test/fixtures/loader/syntax-error/error.js'
p1057
sS'1.17'
p1058
S'./test/fixtures/loader/syntax-error/error.js'
p1059
ssS'eba3195fbbebbec8f3d95caeefcb38b9707695ae703cc4a996ce711a1a80f6c7'
p1060
(dp1061
S'1.16'
p1062
S'./examples/annotator/data/matcher.js'
p1063
sS'1.17'
p1064
S'./examples/annotator/data/matcher.js'
p1065
ssS'798e1419794b610ca98dbae827abe388ac1d7d9ba5f89a0c45b69a147d4f2d80'
p1066
(dp1067
S'1.16'
p1068
S'./test/test-fs.js'
p1069
sS'1.17'
p1070
S'./test/test-fs.js'
p1071
ssS'5a784ca5f16fe54c554e7c2fe746f3e266af0f2d7a9c2a053f92d83e3e0a947d'
p1072
(dp1073
S'1.16'
p1074
S'./lib/sdk/system/runtime.js'
p1075
sS'1.17'
p1076
S'./lib/sdk/system/runtime.js'
p1077
ssS'aff4fe4c3c3a5119495cb984941ecabcc50f84549dbb6689542acf71f000cde0'
p1078
(dp1079
S'1.17'
p1080
S'./test/test-system.js'
p1081
ssS'3063128e679d7546161e599634ab122823a06379f426b0717a8bf86bd80aa873'
p1082
(dp1083
S'1.16'
p1084
S'./lib/sdk/addon-page.js'
p1085
sS'1.17'
p1086
S'./lib/sdk/addon-page.js'
p1087
ssS'd8ed899037746abe248076469cf45888856c6399396482fcd8bcf2219e2453ab'
p1088
(dp1089
S'1.16'
p1090
S'./lib/sdk/util/uuid.js'
p1091
sS'1.17'
p1092
S'./lib/sdk/util/uuid.js'
p1093
ssS'f45e0df600de60066a998b5b328aa9ee36a0c76390b915f0c8e883e629ff0937'
p1094
(dp1095
S'1.17'
p1096
S'./lib/sdk/core/disposable.js'
p1097
ssS'c5c3422f9706784477b4635766fba16f312a3aeb4f04a88b0e47d8b08dd09926'
p1098
(dp1099
S'1.17'
p1100
S'./test/test-content-worker.js'
p1101
ssS'2a588eb1b320c13f33d76d192d937b52439afc684f6f6cafb4f413ca57691878'
p1102
(dp1103
S'1.17'
p1104
S'./lib/sdk/system/events.js'
p1105
ssS'44f3fb3b6a8b3787dd17189d107c1407880e2bf5072ecaa8a37263441f1db743'
p1106
(dp1107
S'1.16'
p1108
S'./test/fixtures/loader/missing/main.js'
p1109
sS'1.17'
p1110
S'./test/fixtures/loader/missing/main.js'
p1111
ssS'897312d194812d1ee7a4241af266619d37a0b6721c2aeb03a17f37768813a19a'
p1112
(dp1113
S'1.16'
p1114
S'./lib/sdk/test/tmp-file.js'
p1115
sS'1.17'
p1116
S'./lib/sdk/test/tmp-file.js'
p1117
ssS'7496f5ff04f5a9f88e38039092e26ab7da92c77a9241c4d89e9a400f5acd1790'
p1118
(dp1119
S'1.16'
p1120
S'./lib/sdk/core/promise.js'
p1121
ssS'50bec7a64960b11d838f2d70a60f61b557dbbe04fa861146e710107e01fa4653'
p1122
(dp1123
S'1.16'
p1124
S'./python-lib/cuddlefish/tests/linker-files/three-deps/three-a/lib/unused.js'
p1125
sS'1.17'
p1126
S'./python-lib/cuddlefish/tests/linker-files/three-deps/three-a/lib/unused.js'
p1127
ssS'29c4a7b16ca88b44c496695fc0b8f1f4d05d1540a66225060a4b8bf14e0d7cda'
p1128
(dp1129
S'1.16'
p1130
S'./test/test-ui-sidebar.js'
p1131
ssS'a7258b4cd73c38a6597f9376dbc104f619e9f35133d86dc317311a1db852fa25'
p1132
(dp1133
S'1.16'
p1134
S'./test/fixtures/chrome-worker/xhr.js'
p1135
ssS'fa77ce59b2693db864fd3f2e4b6249551bf37c4318c86ba72039276efebf330c'
p1136
(dp1137
S'1.16'
p1138
S'./test/test-xul-app.js'
p1139
sS'1.17'
p1140
S'./test/test-xul-app.js'
p1141
ssS'b07552ed5d1e829770da4afde76bd6ef836fabc034fab6f8c595ed8ff4d70897'
p1142
(dp1143
S'1.16'
p1144
S'./python-lib/cuddlefish/tests/linker-files/seven/lib/main.js'
p1145
sS'1.17'
p1146
S'./python-lib/cuddlefish/tests/linker-files/seven/lib/main.js'
p1147
ssS'09adc97656b00dab944408dcb8b1a5821a1d03007104a9ff5548152011cc6707'
p1148
(dp1149
S'1.16'
p1150
S'./lib/sdk/util/array.js'
p1151
sS'1.17'
p1152
S'./lib/sdk/util/array.js'
p1153
ssS'edb64c0d282515be203c328f3fea29692590d185f3e62b7c081d067b3231644b'
p1154
(dp1155
S'1.16'
p1156
S'./test/test-window-events.js'
p1157
sS'1.17'
p1158
S'./test/test-window-events.js'
p1159
ssS'b341c7da6f49cb0e45223048f83c252ed4cb0ecef837aac406f944fe8f89c566'
p1160
(dp1161
S'1.16'
p1162
S'./lib/sdk/private-browsing.js'
p1163
ssS'886c2ea79c7d1d599e9ba6eb12d6fd2d68203c8e60339592f2c52ce547f402f9'
p1164
(dp1165
S'1.16'
p1166
S'./python-lib/cuddlefish/tests/linker-files/seven/lib/unused.js'
p1167
sS'1.17'
p1168
S'./python-lib/cuddlefish/tests/linker-files/seven/lib/unused.js'
p1169
ssS'fccd8e9283b05797eb058795dd91a89298b773da961e737402edd11b7c776211'
p1170
(dp1171
S'1.16'
p1172
S'./test/traits/descriptor-tests.js'
p1173
sS'1.17'
p1174
S'./test/traits/descriptor-tests.js'
p1175
ssS'160bdb6b2e6be5926a22eb67df928f73cf1f02b819361fe6cf460c628495f8c3'
p1176
(dp1177
S'1.17'
p1178
S'./lib/sdk/l10n/properties/core.js'
p1179
ssS'dcf7cb9a21485334d9772a40a3e68c1e228f27c5fc4bb3a87e8a1d61a7251a20'
p1180
(dp1181
S'1.17'
p1182
S'./test/addons/private-browsing-supported/test-sidebar.js'
p1183
ssS'46130987f086b8c1bc31e40be85456d5af8f764d81f90f6d64ba769820253428'
p1184
(dp1185
S'1.16'
p1186
S'./test/test-test-loader.js'
p1187
ssS'54749f80371943a036f177db157bf730a1b9d6d184474aff3ad9e1fc3876a67b'
p1188
(dp1189
S'1.16'
p1190
S'./lib/sdk/l10n/prefs.js'
p1191
sS'1.17'
p1192
S'./lib/sdk/l10n/prefs.js'
p1193
ssS'7af99feeef9572f8f37ca94eaa4c97408dcb1da913aef30dcd6cffa24f84dcd7'
p1194
(dp1195
S'1.17'
p1196
S'./lib/sdk/content/mod.js'
p1197
ssS'ddc9eff90525d851690a06335f9d8cc98216c281edd79c2a5931a24b147d9c09'
p1198
(dp1199
S'1.17'
p1200
S'./test/addons/places/main.js'
p1201
ssS'38c8732025e81d99a8348231476b3281a06e007e1d45fba1a4f7d6a57bf4ab97'
p1202
(dp1203
S'1.16'
p1204
S'./test/test-querystring.js'
p1205
ssS'841e20d9f98065e10760ef6fe5ba21058a1c722f5ddcdf6dabeb3a3cf4c1dc9e'
p1206
(dp1207
S'1.16'
p1208
S'./test/addons/simple-prefs/lib/main.js'
p1209
ssS'c8c567e6ae68f78323012584806bf4f61fb8fc79c4a7cbfc787fb53f7bd67aca'
p1210
(dp1211
S'1.16'
p1212
S'./lib/sdk/windows/dom.js'
p1213
sS'1.17'
p1214
S'./lib/sdk/windows/dom.js'
p1215
ssS'02842c2dda2deae57a712e60844d06e05bdcc03d0c5009df8c57c20b6b101a1b'
p1216
(dp1217
S'1.16'
p1218
S'./test/addons/require/multiple/a.js'
p1219
sS'1.17'
p1220
S'./test/addons/require/multiple/a.js'
p1221
ssS'40d09718d87acb722cebe940bd2e3aab8f02ebb21b478d712d93fffc09bdb919'
p1222
(dp1223
S'1.16'
p1224
S'./lib/sdk/content/events.js'
p1225
sS'1.17'
p1226
S'./lib/sdk/content/events.js'
p1227
ssS'df5b8f3d3deb8dcb77290eecd68ade91722f5f2b9bc29d6b8c13bd814b95d4ec'
p1228
(dp1229
S'1.16'
p1230
S'./examples/library-detector/test/test-main.js'
p1231
sS'1.17'
p1232
S'./examples/library-detector/test/test-main.js'
p1233
ssS'4081138218e8d387ea1c88b6cb87af422f54f3cff1f09b8bc2c4618b93b0f2d7'
p1234
(dp1235
S'1.16'
p1236
S'./test/test-timer.js'
p1237
sS'1.17'
p1238
S'./test/test-timer.js'
p1239
ssS'1ad29f7a17704b6e60cf973e597ad15914b0448dd4b14ba90bbbfc223c8a5ee3'
p1240
(dp1241
S'1.16'
p1242
S'./python-lib/cuddlefish/tests/static-files/packages/third_party/lib/third-party.js'
p1243
sS'1.17'
p1244
S'./python-lib/cuddlefish/tests/static-files/packages/third_party/lib/third-party.js'
p1245
ssS'1d8664ac1ebef70bf56f38da48abe8b5df6920b59284052fe2bee62af19959f3'
p1246
(dp1247
S'1.17'
p1248
S'./test/test-ui-toggle-button.js'
p1249
ssS'aca46e7c00f99122a2df38c9bdf20e193967e7d086310f6fba6663c24ee9f017'
p1250
(dp1251
S'1.16'
p1252
S'./test/fixtures/test-page-mod.html'
p1253
sS'1.17'
p1254
S'./test/fixtures/test-page-mod.html'
p1255
ssS'069d3b3f43f8fdc28d25d2eca98b2f2af9143affd219b318cca582407016e483'
p1256
(dp1257
S'1.16'
p1258
S'./lib/sdk/ui/sidebar.js'
p1259
ssS'fce2e6661f6518b9fb7b606513f8b9e614f2d9026a002cb781ecaad3e3951883'
p1260
(dp1261
S'1.16'
p1262
S'./test/test-disposable.js'
p1263
ssS'0076f17844785c35438297bf7c636dbd2cb4d95647ee69cd2bb44e672d8bc985'
p1264
(dp1265
S'1.16'
p1266
S'./test/addons/symbiont/main.js'
p1267
sS'1.17'
p1268
S'./test/addons/symbiont/main.js'
p1269
ssS'0edfc88b24c575c240971417e1f044ea75f4f945484c808e11a3fb094d759ec5'
p1270
(dp1271
S'1.16'
p1272
S'./lib/sdk/ui/state/events.js'
p1273
sS'1.17'
p1274
S'./lib/sdk/ui/state/events.js'
p1275
ssS'e2724e82ffa4c4f538f5aebd15d1319cd4f29c3e7e7941566f7837e2a051f59d'
p1276
(dp1277
S'1.16'
p1278
S'./lib/sdk/tabs/observer.js'
p1279
sS'1.17'
p1280
S'./lib/sdk/tabs/observer.js'
p1281
ssS'46ff7a4caefd68fbc96f6301750532662526cb8f03614d7848ca2a10da841b6c'
p1282
(dp1283
S'1.16'
p1284
S'./test/test-window-observer.js'
p1285
sS'1.17'
p1286
S'./test/test-window-observer.js'
p1287
ssS'75336fd15ec52dfe64375ff1097bb2b13621ed5d53116d0e7f38236b55ec8c8a'
p1288
(dp1289
S'1.16'
p1290
S'./lib/sdk/addon/installer.js'
p1291
ssS'97ce80c2a4829796ea2b4fb751b775bde79eece4a9133b7c5926f243f635a63a'
p1292
(dp1293
S'1.16'
p1294
S'./lib/sdk/content/utils.js'
p1295
ssS'40828b0e0042191840b2825246555d3ec07250b5c3a2fd460965da99ef81199e'
p1296
(dp1297
S'1.16'
p1298
S'./test/test-passwords-utils.js'
p1299
sS'1.17'
p1300
S'./test/test-passwords-utils.js'
p1301
ssS'1055f3392212643421dba44fbf31900e182b168e58972d8bbb9f0fe680a51bf7'
p1302
(dp1303
S'1.16'
p1304
S'./test/test-match-pattern.js'
p1305
sS'1.17'
p1306
S'./test/test-match-pattern.js'
p1307
ssS'f3e8fb84d943191e73bbd76dcc1ad6c090c287e47174c8e3ab3b8221ebbdbcb6'
p1308
(dp1309
S'1.17'
p1310
S'./lib/sdk/lang/functional.js'
p1311
ssS'a3e4ac748346ad4333d467ec723843a13d3415b9ba01e363e034a6fa594ddda4'
p1312
(dp1313
S'1.16'
p1314
S'./test/test-unit-test.js'
p1315
sS'1.17'
p1316
S'./test/test-unit-test.js'
p1317
ssS'33d1f352635c4d88d92f3762d5a6db55edfee7bea71f424345659a40a992ea1a'
p1318
(dp1319
S'1.16'
p1320
S'./lib/sdk/browser/events.js'
p1321
sS'1.17'
p1322
S'./lib/sdk/browser/events.js'
p1323
ssS'dc873631c239fdf1fe0b7152b86f4f2a08d69a3bdcc9120f082177974ecc6ee9'
p1324
(dp1325
S'1.16'
p1326
S'./examples/annotator/data/list/annotation-list.js'
p1327
sS'1.17'
p1328
S'./examples/annotator/data/list/annotation-list.js'
p1329
ssS'f7bce35e3effcc321fc0810d7423b5225d237595d21d49d0ef10b1ca9c4b2f77'
p1330
(dp1331
S'1.16'
p1332
S'./lib/sdk/util/rules.js'
p1333
sS'1.17'
p1334
S'./lib/sdk/util/rules.js'
p1335
ssS'bb99c0981066639a1ad6c04ec74d433048a5736e54ec7aa34055d4e129b16c8c'
p1336
(dp1337
S'1.16'
p1338
S'./lib/sdk/ui/frame/model.js'
p1339
sS'1.17'
p1340
S'./lib/sdk/ui/frame/model.js'
p1341
ssS'4468f1b86a6957d376f93b27a00ec4db3d3871f86b51c664e8b8b6e8cacb4ad2'
p1342
(dp1343
S'1.16'
p1344
S'./test/fixtures/test-iframe-postmessage.html'
p1345
sS'1.17'
p1346
S'./test/fixtures/test-iframe-postmessage.html'
p1347
ssS'44472bd973b54c6163ac43067f6e3b118d78c51cb571618ed7a653bc61cdc2d9'
p1348
(dp1349
S'1.17'
p1350
S'./test/addons/page-mod-debugger-post/main.js'
p1351
ssS'159d3f428983149ccda89743b75d36fae9bfbe5375a3b9f9a44e6da4cf247583'
p1352
(dp1353
S'1.16'
p1354
S'./python-lib/cuddlefish/tests/linker-files/five/lib/main.js'
p1355
sS'1.17'
p1356
S'./python-lib/cuddlefish/tests/linker-files/five/lib/main.js'
p1357
ssS'4f8579a6ab2a8a8ee0e438d80d073b5c72198714abbc8b068833bc0df4401e50'
p1358
(dp1359
S'1.16'
p1360
S'./lib/sdk/querystring.js'
p1361
sS'1.17'
p1362
S'./lib/sdk/querystring.js'
p1363
ssS'37a771ba17e328a428770ac38ee0547856feaa31c2b9594bd556ca21d8e4609c'
p1364
(dp1365
S'1.16'
p1366
S'./test/modules/badExportAndReturn.js'
p1367
sS'1.17'
p1368
S'./test/modules/badExportAndReturn.js'
p1369
ssS'05ade3b01136c902926676158561e1399978179c6cf030ca45bf7a9307ace435'
p1370
(dp1371
S'1.16'
p1372
S'./lib/sdk/places/utils.js'
p1373
ssS'd5dbf194fba25f07b6225d42fec853760d7309f218d7e91d1b8864614fcb99ab'
p1374
(dp1375
S'1.17'
p1376
S'./test/addons/child_process/index.js'
p1377
ssS'83bb088f37b6b0317963ffeb8c13114d2fe4a5f5973b05b8ec47925244f86d4c'
p1378
(dp1379
S'1.16'
p1380
S'./test/test-test-utils-async.js'
p1381
sS'1.17'
p1382
S'./test/test-test-utils-async.js'
p1383
ssS'1316077291f83dd081333941a98d7c28c0325836ee4231e635d3c40810dd7b62'
p1384
(dp1385
S'1.17'
p1386
S'./test/addons/places/tests/test-places-favicon.js'
p1387
ssS'e88872e2ae70f6c7eb5d927a416c089fc9863e3c26485c2842707ed23e93363f'
p1388
(dp1389
S'1.16'
p1390
S'./test/test-panel.js'
p1391
ssS'c530a937f5e1332f787696abb87a4aaa88a3a0d0b1e3f3958b4fa15284a05602'
p1392
(dp1393
S'1.16'
p1394
S'./lib/sdk/deprecated/errors.js'
p1395
sS'1.17'
p1396
S'./lib/sdk/deprecated/errors.js'
p1397
ssS'3c13ac085d5ee9b48b1fce20b8c9e6285d1e260bd48038dfa7981cccc4397b2b'
p1398
(dp1399
S'1.16'
p1400
S'./examples/toolbar-api/lib/main.js'
p1401
sS'1.17'
p1402
S'./examples/toolbar-api/lib/main.js'
p1403
ssS'a9b3b9f3d86fd620f5b0ff0ff803419bdf16f311f4389999c3d6a7b8a84393d7'
p1404
(dp1405
S'1.16'
p1406
S'./python-lib/cuddlefish/tests/linker-files/one/lib/subdir/three.js'
p1407
sS'1.17'
p1408
S'./python-lib/cuddlefish/tests/linker-files/one/lib/subdir/three.js'
p1409
ssS'1c0c6995edc8c327b63722691e2d198f64102f57bf85dde496859251d281cc81'
p1410
(dp1411
S'1.16'
p1412
S'./lib/sdk/content/sandbox.js'
p1413
ssS'3129ebf7f6abb53fd378ba4ed15e79144aa5d093125df1701c1f234dd5098fd4'
p1414
(dp1415
S'1.16'
p1416
S'./lib/method/core.js'
p1417
sS'1.17'
p1418
S'./lib/method/core.js'
p1419
ssS'cd9280993cf61810c15f1eae24c7bf022fa06491e866d397f0640ace5c166d99'
p1420
(dp1421
S'1.16'
p1422
S'./test/test-ui-toggle-button.js'
p1423
ssS'4d61a1790b650c2b248f88ba9194ef333f0b23da51876b84c1b66d6f957ece7e'
p1424
(dp1425
S'1.16'
p1426
S'./test/addons/require/packages/tabs/main.js'
p1427
sS'1.17'
p1428
S'./test/addons/require/packages/tabs/main.js'
p1429
ssS'deb45eeffca91f6a71d39f89251151a11d8971703c6b76314947733dd418921b'
p1430
(dp1431
S'1.16'
p1432
S'./lib/sdk/net/xhr.js'
p1433
sS'1.17'
p1434
S'./lib/sdk/net/xhr.js'
p1435
ssS'2637815c5ae1ed4cf8887c2f617d530ecb02c0444060381e692b055283bc4478'
p1436
(dp1437
S'1.16'
p1438
S'./test/test-traits.js'
p1439
sS'1.17'
p1440
S'./test/test-traits.js'
p1441
ssS'6e08ecf0afff72e613ac320d4f747aa501170cf8ca7645fba97034c4fb25713e'
p1442
(dp1443
S'1.17'
p1444
S'./lib/sdk/net/url.js'
p1445
ssS'8d18edeb2ad6ff2dc6aa7a0efc4a0dbc3d809331156c31f39a4aa04e05abc946'
p1446
(dp1447
S'1.16'
p1448
S'./test/addons/private-browsing-supported/test-window-tabs.js'
p1449
ssS'acfb1d0a622856013692b6ccd817e2abb7f7edfb3b80a4b1e4f0512455a7ee92'
p1450
(dp1451
S'1.16'
p1452
S'./lib/sdk/deprecated/memory.js'
p1453
sS'1.17'
p1454
S'./lib/sdk/deprecated/memory.js'
p1455
ssS'b91d34d763a0f17a6eda0c2f27a01022c0f380a71a81bb91995a99505c1b1817'
p1456
(dp1457
S'1.16'
p1458
S'./lib/sdk/io/fs.js'
p1459
sS'1.17'
p1460
S'./lib/sdk/io/fs.js'
p1461
ssS'1b8e4c1fcba9720a10a7b6fe548069b30b5c0a2992b077561179f3ef17cd811e'
p1462
(dp1463
S'1.16'
p1464
S'./python-lib/cuddlefish/tests/linker-files/three/tests/test-two.js'
p1465
sS'1.17'
p1466
S'./python-lib/cuddlefish/tests/linker-files/three/tests/test-two.js'
p1467
ssS'b7bee53ad1ae6b90c53c5c110d10f738914550499dfbc3cb03a614b89c456733'
p1468
(dp1469
S'1.16'
p1470
S'./test/test-simple-prefs.js'
p1471
sS'1.17'
p1472
S'./test/test-simple-prefs.js'
p1473
ssS'6bac175cc9ef5170dbb739057c4db637cb74f54b3106b074559c470184c4f432'
p1474
(dp1475
S'1.16'
p1476
S'./lib/sdk/util/match-pattern.js'
p1477
sS'1.17'
p1478
S'./lib/sdk/util/match-pattern.js'
p1479
ssS'93652abaf73b02794653edd07ee1039784fa1df97bc82a3ebbe03affb44c68e3'
p1480
(dp1481
S'1.16'
p1482
S'./test/fixtures/loader/self/main.js'
p1483
sS'1.17'
p1484
S'./test/fixtures/loader/self/main.js'
p1485
ssS'cae20896d1cc6f483411c94921e19e697f5b7bbe51dac5920d0d720bbfe4fce5'
p1486
(dp1487
S'1.16'
p1488
S'./lib/sdk/system/globals.js'
p1489
sS'1.17'
p1490
S'./lib/sdk/system/globals.js'
p1491
ssS'd4adcded83227bae39c7132825a7e6f59c902a4cf17a246044171530102fb6bf'
p1492
(dp1493
S'1.16'
p1494
S'./lib/sdk/l10n/html.js'
p1495
ssS'f0d0822948ceb6247d8bd88fc520d3fdfb8fb5127525f0c9beaac15adbba3eaf'
p1496
(dp1497
S'1.16'
p1498
S'./test/test-private-browsing.js'
p1499
ssS'377b666009ddc80f4ba59da0db79732eec62fcfdce29fba7ed873e4397181b2b'
p1500
(dp1501
S'1.16'
p1502
S'./test/modules/blue.js'
p1503
sS'1.17'
p1504
S'./test/modules/blue.js'
p1505
ssS'cb46620751a3f1d30801f8291fb56a9e8118eaf1e1bf085bf723c1f797f28948'
p1506
(dp1507
S'1.16'
p1508
S'./lib/sdk/ui/sidebar/namespace.js'
p1509
sS'1.17'
p1510
S'./lib/sdk/ui/sidebar/namespace.js'
p1511
ssS'ac004792287c50c0b1cc1efcf2dd6e052a749a5a196aeb31fc124205575708e7'
p1512
(dp1513
S'1.16'
p1514
S'./test/test-file.js'
p1515
sS'1.17'
p1516
S'./test/test-file.js'
p1517
ssS'b7a1060ebb9b7b998cb2a52c4e806ee76a3808f8a7e7d13381cd40ec1dd5278b'
p1518
(dp1519
S'1.17'
p1520
S'./test/addons/translators/main.js'
p1521
ssS'19b532b63d0c8fc9697a461371d5ede433c2d4f6cf0f038df48c841fb1e1a715'
p1522
(dp1523
S'1.16'
p1524
S'./test/test-commonjs-test-adapter.js'
p1525
sS'1.17'
p1526
S'./test/test-commonjs-test-adapter.js'
p1527
ssS'671c57d4a920bcabfd11dc57366310ed9b87f8e12a4a81d22bd0a854f467dd50'
p1528
(dp1529
S'1.17'
p1530
S'./test/test-panel.js'
p1531
ssS'3e4d8917dfc04c42c68020f1f5f6f47f4ee06dddb8174e648460c43a6c27dee4'
p1532
(dp1533
S'1.17'
p1534
S'./test/tabs/test-fennec-tabs.js'
p1535
ssS'6e858dd1f0e4dadfe9921970d8b6b86c4129e25f798a3c402eb3bedff68e2db1'
p1536
(dp1537
S'1.17'
p1538
S'./test/addons/private-browsing-supported/test-window-tabs.js'
p1539
ssS'c24eb8188336b78ba44786e09c76292a2faeb898170117f9ae50589ee2f43b11'
p1540
(dp1541
S'1.16'
p1542
S'./test/test-ui-id.js'
p1543
sS'1.17'
p1544
S'./test/test-ui-id.js'
p1545
ssS'ce7db21c97db1f49a8300bc3beda622ecc38d96db378163ad3c216cc5193f2f7'
p1546
(dp1547
S'1.16'
p1548
S'./test/test-tabs.js'
p1549
sS'1.17'
p1550
S'./test/test-tabs.js'
p1551
ssS'e27cf53371d0e29e44d86ff7fbedcc15c4573211ade5e05ca2acc8ddc504e0a9'
p1552
(dp1553
S'1.16'
p1554
S'./test/test-system-runtime.js'
p1555
ssS'0b7841b6d1f42b7744c706cad89a15ce642458b64b37772bbc12895fc7464fb5'
p1556
(dp1557
S'1.16'
p1558
S'./lib/sdk/ui/frame.js'
p1559
ssS'c93770eee4157933216decb265e81ca1b2a787d36fcd1b2af12fbda3fd2816ee'
p1560
(dp1561
S'1.16'
p1562
S'./lib/method/test/browser.js'
p1563
sS'1.17'
p1564
S'./lib/method/test/browser.js'
p1565
ssS'f9f17fc4a2562421bf869466afe210679cbcc88dab1c950cf88c69c00011106f'
p1566
(dp1567
S'1.16'
p1568
S'./test/test-cuddlefish.js'
p1569
sS'1.17'
p1570
S'./test/test-cuddlefish.js'
p1571
ssS'0cddbc6547c443b18d6974e08f66bb2e8de75795c789cc2ce81a2d7be8c0aa98'
p1572
(dp1573
S'1.17'
p1574
S'./lib/sdk/deprecated/api-utils.js'
p1575
ssS'1d85a1c8ba05f181055080f586b9273a6ac322a4992975d207bc8bb7e40bc43f'
p1576
(dp1577
S'1.16'
p1578
S'./test/fixtures/loader/syntax-error/main.js'
p1579
sS'1.17'
p1580
S'./test/fixtures/loader/syntax-error/main.js'
p1581
ssS'ab88096091723a68bcd36b29b07c01ec29b079729b5bf3be6d078dfb9976b1b0'
p1582
(dp1583
S'1.16'
p1584
S'./test/test-hidden-frame.js'
p1585
sS'1.17'
p1586
S'./test/test-hidden-frame.js'
p1587
ssS'111978da163072ebc52a9d679ace7ba35abfb240ecd9a46701b0486eab2cf4e7'
p1588
(dp1589
S'1.16'
p1590
S'./test/addons/preferences-branch/lib/main.js'
p1591
sS'1.17'
p1592
S'./test/addons/preferences-branch/lib/main.js'
p1593
ssS'517364f2d45162fb5037437b5b6cb953d00d9b2b3b79ba87d9fe57ea6ee6070c'
p1594
(dp1595
S'1.16'
p1596
S'./examples/reddit-panel/data/jquery-1.4.4.min.js'
p1597
sS'1.17'
p1598
S'./examples/reddit-panel/data/jquery-1.4.4.min.js'
p1599
ssS'b8b5c8ee688b65246e7d39a93317a4c237bb703d0ac6fdf887c57385873cc2a8'
p1600
(dp1601
S'1.16'
p1602
S'./test/fixtures/chrome-worker/jsctypes.js'
p1603
sS'1.17'
p1604
S'./test/fixtures/chrome-worker/jsctypes.js'
p1605
ssS'6a5cde25586fb59582a3656c7b8fed3e3e73f1b62cee6f79053e95ee85b493c5'
p1606
(dp1607
S'1.16'
p1608
S'./lib/sdk/places/host/host-bookmarks.js'
p1609
sS'1.17'
p1610
S'./lib/sdk/places/host/host-bookmarks.js'
p1611
ssS'a0c7c42fa8172696e35591f6a6c1b06684d079e93a9209d7129e0317f4d6243a'
p1612
(dp1613
S'1.16'
p1614
S'./lib/sdk/l10n/plural-rules.js'
p1615
sS'1.17'
p1616
S'./lib/sdk/l10n/plural-rules.js'
p1617
ssS'66730d403de6e65e542f814275892ce840e409549f89ddd473473e609a4d51c1'
p1618
(dp1619
S'1.16'
p1620
S'./test/fixtures/test-page-worker.html'
p1621
sS'1.17'
p1622
S'./test/fixtures/test-page-worker.html'
p1623
ssS'1ebfee6be4e9bbd0e145a60f2f9f3b06cdf8716b96b2cdc955d680c1b54072d4'
p1624
(dp1625
S'1.16'
p1626
S'./examples/annotator/data/selector.js'
p1627
sS'1.17'
p1628
S'./examples/annotator/data/selector.js'
p1629
ssS'e7f3901a6c51468b9edb0ef022e1d7fe49ca49e410649a41b1178632669ac56b'
p1630
(dp1631
S'1.16'
p1632
S'./python-lib/cuddlefish/tests/addons/simplest-test/tests/test-minimal.js'
p1633
sS'1.17'
p1634
S'./python-lib/cuddlefish/tests/addons/simplest-test/tests/test-minimal.js'
p1635
ssS'8d6354f192e4e8de8cec4ab951027e2987d577695cd8d71f9f4a7cb65e0bc400'
p1636
(dp1637
S'1.16'
p1638
S'./lib/sdk/windows/observer.js'
p1639
sS'1.17'
p1640
S'./lib/sdk/windows/observer.js'
p1641
ssS'2b2ac50d212f68f5946989fffeb0c2321958d103e3da261bc9d69495d81bd7e3'
p1642
(dp1643
S'1.16'
p1644
S'./test/addons/addon-page/main.js'
p1645
ssS'11e1916bbeab5f7cc7322c017b50e84cc8b2f4af736589dd3fbbac0bd47b2d09'
p1646
(dp1647
S'1.17'
p1648
S'./test/addons/page-mod-debugger-pre/main.js'
p1649
ssS'2b12d7ad6fcfa66fe7505a3cbaa40692e0447fc1c0cd961d3886c78585038315'
p1650
(dp1651
S'1.16'
p1652
S'./lib/sdk/panel.js'
p1653
ssS'427df4522238415d145ba652e6ce773e44ab73b029d0b629658fe667fcd6b087'
p1654
(dp1655
S'1.16'
p1656
S'./test/test-self.js'
p1657
sS'1.17'
p1658
S'./test/test-self.js'
p1659
ssS'ee09af44db3818d26a5483ec6eb9d6b676bea771ed566e960984aa5f19b08fd3'
p1660
(dp1661
S'1.16'
p1662
S'./test/test-tab-events.js'
p1663
sS'1.17'
p1664
S'./test/test-tab-events.js'
p1665
ssS'227463e1eda93b8ca2070654ad6f716efd8c7b1477caee59636c39e551756891'
p1666
(dp1667
S'1.17'
p1668
S'./test/test-content-script.js'
p1669
ssS'9ad563fc61a16f5a15c4b673948183b8671b116c8a3981b9bc2a87666f38c4c2'
p1670
(dp1671
S'1.16'
p1672
S'./test/fixtures/loader/globals/main.js'
p1673
sS'1.17'
p1674
S'./test/fixtures/loader/globals/main.js'
p1675
ssS'747eb3be7184769237cdecbd8d6c03dcc2876cd4ba2a3df69650608ba3b0cc8e'
p1676
(dp1677
S'1.17'
p1678
S'./app-extension/bootstrap.js'
p1679
ssS'2c9184ea4d9e9b537472d4895675945f5e72ed51d8aa007de00a2e80bbb1718c'
p1680
(dp1681
S'1.16'
p1682
S'./lib/diffpatcher/index.js'
p1683
sS'1.17'
p1684
S'./lib/diffpatcher/index.js'
p1685
ssS'f94d4613ba67c8f6f759c5ac60c86126fa4f432a7f7c9ec23ad392e1e3d71d1a'
p1686
(dp1687
S'1.17'
p1688
S'./lib/sdk/l10n/json/core.js'
p1689
ssS'd469d599146eacad4ea883af331424245f75834f0e8870547b08a7a65fd28902'
p1690
(dp1691
S'1.16'
p1692
S'./test/addons/places/places-helper.js'
p1693
sS'1.17'
p1694
S'./test/addons/places/places-helper.js'
p1695
ssS'f61f47d2ce7994f43ec81709d4da48ba08d7882f666a40fec2543c180b17e214'
p1696
(dp1697
S'1.16'
p1698
S'./test/test-modules.js'
p1699
sS'1.17'
p1700
S'./test/test-modules.js'
p1701
ssS'934448012d4276273339975863fcbaa3813b03e58487515f512c56ffe3e9c8a7'
p1702
(dp1703
S'1.16'
p1704
S'./test/test-diffpatcher.js'
p1705
sS'1.17'
p1706
S'./test/test-diffpatcher.js'
p1707
ssS'2af40f0d803fd28250b1771a2c372c082f62a4a6f1ab8f8e554f3719d281f390'
p1708
(dp1709
S'1.16'
p1710
S'./test/test-module.js'
p1711
sS'1.17'
p1712
S'./test/test-module.js'
p1713
ssS'a353671d6631e7e9b136ae5e6dddf21f63526516961016a4c31ff802330858b5'
p1714
(dp1715
S'1.16'
p1716
S'./lib/sdk/view/core.js'
p1717
sS'1.17'
p1718
S'./lib/sdk/view/core.js'
p1719
ssS'22b43228c32a1c9751a2c46ec2384ca80fd568643c4b935b2db362c8425bacc6'
p1720
(dp1721
S'1.16'
p1722
S'./test/test-errors.js'
p1723
sS'1.17'
p1724
S'./test/test-errors.js'
p1725
ssS'948bb04a5dbaff9f0325654828e9a74efd1b093280b9faabf85d38cea795a78d'
p1726
(dp1727
S'1.17'
p1728
S'./lib/sdk/preferences/service.js'
p1729
ssS'801fd8f260de4770909fb53d4e220b068c77142a788c75e847cd8d7fa94916b9'
p1730
(dp1731
S'1.16'
p1732
S'./python-lib/cuddlefish/tests/linker-files/one/lib/two.js'
p1733
sS'1.17'
p1734
S'./python-lib/cuddlefish/tests/linker-files/one/lib/two.js'
p1735
ssS'6f9902f19b7647f43d31712eda57c838360a5a8215aca68f9d9838a6944e388d'
p1736
(dp1737
S'1.16'
p1738
S'./test/test-content-script.js'
p1739
ssS'b1e84998738071bedf2c0dde87ec8e4725db92ad19cc754b2eb417f35c0f8695'
p1740
(dp1741
S'1.16'
p1742
S'./python-lib/cuddlefish/tests/static-files/packages/api-utils/lib/loader.js'
p1743
sS'1.17'
p1744
S'./python-lib/cuddlefish/tests/static-files/packages/api-utils/lib/loader.js'
p1745
ssS'fb77332d03b230cf5d2267e3757cb2336c0a9c6e60f7fa2048bf6cc19c7c43f4'
p1746
(dp1747
S'1.16'
p1748
S'./test/traits/inheritance-tests.js'
p1749
sS'1.17'
p1750
S'./test/traits/inheritance-tests.js'
p1751
ssS'0eedb3c696c06f7e1a61d2ff595c4a7bb63e6237dc8bbc9647731bae0130fc6f'
p1752
(dp1753
S'1.17'
p1754
S'./lib/sdk/page-worker.js'
p1755
ssS'58b600393552c0fc49deae51e3457dce524c798516c8ca6c5dcac7e21b4ccafd'
p1756
(dp1757
S'1.16'
p1758
S'./lib/sdk/ui/button/toggle.js'
p1759
ssS'31c117dcc15dc66938884419e1504727c28964f5ed5c0a0bbc94c4309109d6de'
p1760
(dp1761
S'1.16'
p1762
S'./lib/sdk/platform/xpcom.js'
p1763
sS'1.17'
p1764
S'./lib/sdk/platform/xpcom.js'
p1765
ssS'b138b5d04312eb7b3faa266fb457603b01871685a606b1027d60c258dc02e38c'
p1766
(dp1767
S'1.16'
p1768
S'./test/test-l10n-plural-rules.js'
p1769
sS'1.17'
p1770
S'./test/test-l10n-plural-rules.js'
p1771
ssS'f1cc588abedaf319b62db8e81d8e37819e37c463daf1c73ea5c27dc1a86e001b'
p1772
(dp1773
S'1.16'
p1774
S'./test/test-notifications.js'
p1775
sS'1.17'
p1776
S'./test/test-notifications.js'
p1777
ssS'1ee0467e75bde913c96cee5711c4c61d049b7a676e459a7d0a09c1b52044f71a'
p1778
(dp1779
S'1.16'
p1780
S'./python-lib/cuddlefish/tests/static-files/xpi-template/components/harness.js'
p1781
sS'1.17'
p1782
S'./python-lib/cuddlefish/tests/static-files/xpi-template/components/harness.js'
p1783
ssS'c06ba3d447301c24b07d57384e54b8e40fcaba281bc933ed75755565afd74960'
p1784
(dp1785
S'1.16'
p1786
S'./test/addons/standard-id/lib/main.js'
p1787
sS'1.17'
p1788
S'./test/addons/standard-id/lib/main.js'
p1789
ssS'41868e0832d762ab54dc1f9270685edc407e78e96adb97fd0799e2f50090d778'
p1790
(dp1791
S'1.16'
p1792
S'./python-lib/cuddlefish/tests/e10s-adapter-files/packages/foo/lib/bar.js'
p1793
sS'1.17'
p1794
S'./python-lib/cuddlefish/tests/e10s-adapter-files/packages/foo/lib/bar.js'
p1795
ssS'8316fc3a23fc24fffb0a56acc9e1af0cb125658df1d1694f291cac4b35661231'
p1796
(dp1797
S'1.16'
p1798
S'./test/addons/layout-change/main.js'
p1799
sS'1.17'
p1800
S'./test/addons/layout-change/main.js'
p1801
ssS'fd01d15cd42c54fc69c6927f4ef3fa95f888c6944f19788815bc211acfa81281'
p1802
(dp1803
S'1.16'
p1804
S'./lib/sdk/l10n/locale.js'
p1805
ssS'bf6fec822073e5b0a85342c759f91e0d057a316af5427eb0d8fee70c9a6da3a4'
p1806
(dp1807
S'1.16'
p1808
S'./test/fixtures/es5.js'
p1809
sS'1.17'
p1810
S'./test/fixtures/es5.js'
p1811
ssS'c40de0749cd249c1ddad20927af53ec161883cc49b8625796de5d876273c7d71'
p1812
(dp1813
S'1.16'
p1814
S'./lib/sdk/net/url.js'
p1815
ssS'8cb646262def06e519b680d96861058a2ee6fcebdbea11dd59370361ebaac1db'
p1816
(dp1817
S'1.17'
p1818
S'./lib/sdk/input/customizable-ui.js'
p1819
ssS'24d2b64e929308a7dcb4344c34f5b1d6d0fd4cc91e074058ee8ea08bfd459414'
p1820
(dp1821
S'1.16'
p1822
S'./test/addons/places/tests/test-places-utils.js'
p1823
ssS'6269072434ac90491de3d3aa3f5a90e59465321f700c66708b95d290447fe6e1'
p1824
(dp1825
S'1.16'
p1826
S'./examples/annotator/data/annotation/annotation.html'
p1827
sS'1.17'
p1828
S'./examples/annotator/data/annotation/annotation.html'
p1829
ssS'4f8fa7bcc1a58617597021fd94e0265562181b60d13c9896126b456d8f9bde96'
p1830
(dp1831
S'1.16'
p1832
S'./lib/method/test/common.js'
p1833
sS'1.17'
p1834
S'./lib/method/test/common.js'
p1835
ssS'0164c51ed01dae6d4066980a2fb286b12089bd505bd71965e72595e7a7e77c2b'
p1836
(dp1837
S'1.17'
p1838
S'./lib/sdk/ui/sidebar.js'
p1839
ssS'cb1b00e8abd41fdbfa1c703f39ca635a1a206c4ba35c5fc48d59076fb4947d8d'
p1840
(dp1841
S'1.16'
p1842
S'./lib/sdk/windows/fennec.js'
p1843
sS'1.17'
p1844
S'./lib/sdk/windows/fennec.js'
p1845
ssS'f736100becf05978bd25e2fb15b0871398a0489bec0f3edbf54065ec731693de'
p1846
(dp1847
S'1.17'
p1848
S'./lib/sdk/panel/utils.js'
p1849
ssS'44edea85db37ec95bd13dcc6cd33cdfa51762462f5eddc633f700cf2be6f86d7'
p1850
(dp1851
S'1.16'
p1852
S'./test/test-clipboard.js'
p1853
sS'1.17'
p1854
S'./test/test-clipboard.js'
p1855
ssS'd51858ab46601466b5bb072e309897a8733df33fc29bb6bfa0cd984af3c9b112'
p1856
(dp1857
S'1.16'
p1858
S'./test/fixtures/native-addon-test/dir/a/index.js'
p1859
sS'1.17'
p1860
S'./test/fixtures/native-addon-test/dir/a/index.js'
p1861
ssS'688517df0f809e8cc24101c00a6a0ebd3ed3f37c7f6cfd0ac74b0b9c8fe1a87f'
p1862
(dp1863
S'1.16'
p1864
S'./test/traits/object-tests.js'
p1865
sS'1.17'
p1866
S'./test/traits/object-tests.js'
p1867
ssS'8fc9340bc192a4df4ee6061f913a289c44a60c9fb7e1548941e14a48855afe9d'
p1868
(dp1869
S'1.16'
p1870
S'./test/test-simple-storage.js'
p1871
ssS'9d0fe7e4a49b9deca917a4e6fbdec124a9ffeb875e20ce8699fdad81df866ead'
p1872
(dp1873
S'1.16'
p1874
S'./test/test-window-loader.js'
p1875
sS'1.17'
p1876
S'./test/test-window-loader.js'
p1877
ssS'c84215c117d347b44bc20cf252fbbef49e8f955941566ba566ab0bb0fda2e097'
p1878
(dp1879
S'1.17'
p1880
S'./examples/reading-data/tests/test-main.js'
p1881
ssS'b95e0ffaa371d3e07ffc97d43854403a740ee87174f1412dc7c22353f09bbbbb'
p1882
(dp1883
S'1.16'
p1884
S'./test/test-packaging.js'
p1885
sS'1.17'
p1886
S'./test/test-packaging.js'
p1887
ssS'729f2098e2c6426a2823f3b49f0dcea80edfadf68a1fff6eb753fa6027f3e64b'
p1888
(dp1889
S'1.17'
p1890
S'./test/addons/simple-prefs/lib/main.js'
p1891
ssS'0f3e55250b04737aec7d8244ad33791fb375cd518440d2c55629b2f2ce0d3118'
p1892
(dp1893
S'1.16'
p1894
S'./lib/sdk/tabs/events.js'
p1895
sS'1.17'
p1896
S'./lib/sdk/tabs/events.js'
p1897
ssS'22cae603972ea64259050519dd2b6f155c5e9829399e598f3f9d9aaeb829318f'
p1898
(dp1899
S'1.16'
p1900
S'./lib/sdk/io/data.js'
p1901
sS'1.17'
p1902
S'./lib/sdk/io/data.js'
p1903
ssS'153b7cf39bbfa3b0646407de9e4bd9bcc5943fb2c9fc09964ba67ebf88d0ca56'
p1904
(dp1905
S'1.16'
p1906
S'./lib/sdk/tabs/tab-fennec.js'
p1907
ssS'9132ebc55856415307138c971d9dc771ccb2bd51f8400cceea9667b00196b31b'
p1908
(dp1909
S'1.16'
p1910
S'./python-lib/cuddlefish/tests/linker-files/three/lib/main.js'
p1911
sS'1.17'
p1912
S'./python-lib/cuddlefish/tests/linker-files/three/lib/main.js'
p1913
ssS'ae7cd7e48bac6473ceee631fc41d964d1514b4596ad65e1972550ba068850230'
p1914
(dp1915
S'1.16'
p1916
S'./test/addons/require/main.js'
p1917
sS'1.17'
p1918
S'./test/addons/require/main.js'
p1919
ssS'f9ace2f879611b57529097fc284e47529463750c307e88b87e116408293f76b3'
p1920
(dp1921
S'1.16'
p1922
S'./lib/sdk/window/browser.js'
p1923
sS'1.17'
p1924
S'./lib/sdk/window/browser.js'
p1925
ssS'6fa8490658a9c86a482821704c299dca3912b60762269c78a3dabb14941a8bc4'
p1926
(dp1927
S'1.16'
p1928
S'./lib/sdk/frame/utils.js'
p1929
sS'1.17'
p1930
S'./lib/sdk/frame/utils.js'
p1931
ssS'048c11e831948cbc70d10112daa3ee36b7d9771f67ba4d9d762ef6c896565fb8'
p1932
(dp1933
S'1.16'
p1934
S'./lib/sdk/self.js'
p1935
sS'1.17'
p1936
S'./lib/sdk/self.js'
p1937
ssS'5685b6f0fdbad65288721ff3daaf302cc19e39c018242be79f246a1e22de79ea'
p1938
(dp1939
S'1.16'
p1940
S'./test/test-context-menu.html'
p1941
sS'1.17'
p1942
S'./test/test-context-menu.html'
p1943
ssS'08619e14af3ab86ed084ab51baaa424cc83d4d69fc5c33a503b0cdbaa87f7c20'
p1944
(dp1945
S'1.16'
p1946
S'./lib/sdk/content/content-worker.js'
p1947
ssS'0dcbe26be065ee154518d18b2f903147b0fcaae74e9408b4ba0e5282943fe483'
p1948
(dp1949
S'1.16'
p1950
S'./test/fixtures.js'
p1951
sS'1.17'
p1952
S'./test/fixtures.js'
p1953
ssS'9f52fb017f7920335fb95e97339446e44b90820d9ec146830898150a035a3f58'
p1954
(dp1955
S'1.16'
p1956
S'./lib/sdk/keyboard/utils.js'
p1957
sS'1.17'
p1958
S'./lib/sdk/keyboard/utils.js'
p1959
ssS'54001eebecb7b9645a8a9a37976ccd7b2326e718f364f9592ad24b0783d8223c'
p1960
(dp1961
S'1.17'
p1962
S'./lib/sdk/l10n/loader.js'
p1963
ssS'243d1cf40a30029839fdb376d5ae1814b70af2f3ad43fd135a32eae62dc3efb3'
p1964
(dp1965
S'1.16'
p1966
S'./test/test-require.js'
p1967
sS'1.17'
p1968
S'./test/test-require.js'
p1969
ssS'010efba8e0d8cb5a047196afb8ef1d28cca1e27e1d117538509fca2a192b4b73'
p1970
(dp1971
S'1.16'
p1972
S'./lib/sdk/test/assert.js'
p1973
sS'1.17'
p1974
S'./lib/sdk/test/assert.js'
p1975
ssS'05b73422c6cc113fe442e1a3b7cbd9b65aae666c154b6a9d94415fca1263b1ba'
p1976
(dp1977
S'1.16'
p1978
S'./python-lib/cuddlefish/tests/addons/simplest-test/main.js'
p1979
sS'1.17'
p1980
S'./python-lib/cuddlefish/tests/addons/simplest-test/main.js'
p1981
ssS'1f1ebe64ec80b57f4408ad28b22d6c5a4ef324288c9a922f422199b53c3134d9'
p1982
(dp1983
S'1.16'
p1984
S'./lib/sdk/util/contract.js'
p1985
sS'1.17'
p1986
S'./lib/sdk/util/contract.js'
p1987
ssS'cdc57100a1b695ade92ba9058c56486d02a78d79af4bac750a9989c79465c727'
p1988
(dp1989
S'1.17'
p1990
S'./test/addons/page-mod-debugger-pre/data/script.js'
p1991
ssS'aed2b6b39bcfed16ca47e092e59c85825273d5ebd0850fe584958b87db29911b'
p1992
(dp1993
S'1.17'
p1994
S'./lib/sdk/event/dom.js'
p1995
ssS'80f62118a1a8d9924962fa40bad9428aea01151caa1b452c02e8c42ea611caad'
p1996
(dp1997
S'1.16'
p1998
S'./lib/sdk/ui/sidebar/contract.js'
p1999
sS'1.17'
p2000
S'./lib/sdk/ui/sidebar/contract.js'
p2001
ssS'b3df71620ebb243cdc30d70618e8adc6ac81d7c990c88b9c429d55facae5b329'
p2002
(dp2003
S'1.16'
p2004
S'./test/test-test-utils.js'
p2005
sS'1.17'
p2006
S'./test/test-test-utils.js'
p2007
ssS'b14793ec4ffca6ef135fb605b23f91b39f72b206c77eaf764673b359ea794461'
p2008
(dp2009
S'1.16'
p2010
S'./test/tabs/test-fennec-tabs.js'
p2011
ssS'f94eb8647547f7faa2a05d9e8aa0118a17c2f3920dcb9dfd78fe590eb35cd5f7'
p2012
(dp2013
S'1.17'
p2014
S'./test/addons/page-mod-debugger-pre/data/index.html'
p2015
ssS'6ab7140784cf58090fea895799306f0ea31a46183432848eb1362269ad692704'
p2016
(dp2017
S'1.16'
p2018
S'./test/test-plain-text-console.js'
p2019
ssS'4b2a33296a5f7cbfee8a3fd886ad5529da3f1e53bd96905ad27b724f6ecc116d'
p2020
(dp2021
S'1.16'
p2022
S'./lib/sdk/ui/button/view.js'
p2023
ssS'febf05d8a1fdfdaa8aea80ee358d38296f94f2e1487d19c8e451a96d34087886'
p2024
(dp2025
S'1.16'
p2026
S'./test/test-cortex.js'
p2027
sS'1.17'
p2028
S'./test/test-cortex.js'
p2029
ssS'2b1c9e7a5685fd29643f7edddf7c7073c6d6235967c0c458b05b4a87196a028a'
p2030
(dp2031
S'1.16'
p2032
S'./lib/sdk/deprecated/events/assembler.js'
p2033
sS'1.17'
p2034
S'./lib/sdk/deprecated/events/assembler.js'
p2035
ssS'80f4644053a8cec4eeae11e7546651da61ae7c5cad0483007566d026629b63bf'
p2036
(dp2037
S'1.16'
p2038
S'./test/addons/unpacked/main.js'
p2039
sS'1.17'
p2040
S'./test/addons/unpacked/main.js'
p2041
ssS'ef0c53b443ca6c082363030054f4a3a352e003a684e58868b1ff0091144d9923'
p2042
(dp2043
S'1.16'
p2044
S'./test/test-passwords.js'
p2045
sS'1.17'
p2046
S'./test/test-passwords.js'
p2047
ssS'bbce5afd769bdb89575afaae9ab34f7ff937d444457abc5976e0b8ddc0dd6a03'
p2048
(dp2049
S'1.16'
p2050
S'./test/test-chrome.js'
p2051
sS'1.17'
p2052
S'./test/test-chrome.js'
p2053
ssS'cb65fc736937414de995ecb55bb2bd6198807f296e65c8fb990aec7ff5e41780'
p2054
(dp2055
S'1.16'
p2056
S'./test/test-tmp-file.js'
p2057
sS'1.17'
p2058
S'./test/test-tmp-file.js'
p2059
ssS'5757620610466641a27db6c4f143158784c4c5511e6381e1bdf6906c7496f8c6'
p2060
(dp2061
S'1.17'
p2062
S'./lib/sdk/ui/frame.js'
p2063
ssS'ef04d9cfc123d0cc99e0b99014135847f9a79b9c464d8dde4a2d66b855ef48f9'
p2064
(dp2065
S'1.17'
p2066
S'./test/addons/simple-prefs-l10n/main.js'
p2067
ssS'8f706fd582760c5e7c4329d74a5443389702da570cbfa1ff081f625d1321cb8d'
p2068
(dp2069
S'1.16'
p2070
S'./test/addons/places/tests/test-places-history.js'
p2071
sS'1.17'
p2072
S'./test/addons/places/tests/test-places-history.js'
p2073
ssS'c7f7b46b1c3ff99e74bac37b7521002e09a03f67bb4b74dfd14906b38d32d010'
p2074
(dp2075
S'1.16'
p2076
S'./test/addons/require/packages/tabs/page-mod.js'
p2077
sS'1.17'
p2078
S'./test/addons/require/packages/tabs/page-mod.js'
p2079
ssS'b67112198bf95ed4777bcf29981717e9a831045ed78df1ab68f351f18cd026bf'
p2080
(dp2081
S'1.16'
p2082
S'./test/fixtures/chrome-worker/setTimeout.js'
p2083
sS'1.17'
p2084
S'./test/fixtures/chrome-worker/setTimeout.js'
p2085
ssS'718af1d60a035568d417a64fc6a590802197c26dcc086fe05d5288fa83fe8739'
p2086
(dp2087
S'1.16'
p2088
S'./lib/sdk/system/unload.js'
p2089
sS'1.17'
p2090
S'./lib/sdk/system/unload.js'
p2091
ssS'6a2c48a35517d37388e21380648ed7699a422671814c9707c9d073c948bfa4ca'
p2092
(dp2093
S'1.16'
p2094
S'./python-lib/cuddlefish/tests/linker-files/six/unreachable.js'
p2095
sS'1.17'
p2096
S'./python-lib/cuddlefish/tests/linker-files/six/unreachable.js'
p2097
ssS'f7c52d21e15dd27140ff3a108ae0d233c2634c611b7e1cae51eb501aac827d11'
p2098
(dp2099
S'1.16'
p2100
S'./lib/sdk/tabs/tab-firefox.js'
p2101
sS'1.17'
p2102
S'./lib/sdk/tabs/tab-firefox.js'
p2103
ssS'93a422474a4201c86a64e92487bbf48cb3e37ab25ce850c215f37b5b36ecb6d5'
p2104
(dp2105
S'1.16'
p2106
S'./lib/sdk/stylesheet/style.js'
p2107
sS'1.17'
p2108
S'./lib/sdk/stylesheet/style.js'
p2109
ssS'adcbf6755bcd9263c63c8f390798c9be69d6c609ac71f5d481671cdac68e85e8'
p2110
(dp2111
S'1.16'
p2112
S'./examples/library-detector/data/widget.html'
p2113
sS'1.17'
p2114
S'./examples/library-detector/data/widget.html'
p2115
ssS'ccc3e96fe1440125af27df394c53608a8fb6043698a42eadf5345425280abedb'
p2116
(dp2117
S'1.16'
p2118
S'./test/addons/curly-id/lib/main.js'
p2119
sS'1.17'
p2120
S'./test/addons/curly-id/lib/main.js'
p2121
ssS'93eb9a5ee87cd0bd96ce40f56fad61e0a5e3901bfed23286538a73026ad0dfa8'
p2122
(dp2123
S'1.16'
p2124
S'./lib/sdk/util/object.js'
p2125
sS'1.17'
p2126
S'./lib/sdk/util/object.js'
p2127
ssS'59551239e9fa3c80bd85149b5d1e3a969b5fbcd871e1d2ad5f4f24d4306bf8f8'
p2128
(dp2129
S'1.17'
p2130
S'./test/tabs/test-firefox-tabs.js'
p2131
ssS'c43f201f0b9b54d464f4d8887263f65b137edb792e5cad713e85140a8e9f7597'
p2132
(dp2133
S'1.16'
p2134
S'./test/test-net-url.js'
p2135
ssS'2db630192afd318797adabfcd78b384fbc07059f939932331b67d5d98fc6b96a'
p2136
(dp2137
S'1.17'
p2138
S'./lib/sdk/system/child_process/subprocess_worker_win.js'
p2139
ssS'245a6cd46b7395cfca7b8e7c896b037c4ec3e06e219163e73b5f8ae6f837233e'
p2140
(dp2141
S'1.16'
p2142
S'./lib/sdk/output/system.js'
p2143
sS'1.17'
p2144
S'./lib/sdk/output/system.js'
p2145
ssS'213b1f6306f450edab64c1a3d1469fc4e7554ce113d21533c87cab32020f7398'
p2146
(dp2147
S'1.16'
p2148
S'./test/test-light-traits.js'
p2149
sS'1.17'
p2150
S'./test/test-light-traits.js'
p2151
ssS'481ddc79abc43c7683449e153d1c12495d2c514aaf2d09a84dcced746d171cf7'
p2152
(dp2153
S'1.16'
p2154
S'./test/modules/castor.js'
p2155
sS'1.17'
p2156
S'./test/modules/castor.js'
p2157
ssS'858880bef09d2d16315b5dc8abf00e7af8c9e80d042300f4123aa1051fe853e9'
p2158
(dp2159
S'1.16'
p2160
S'./examples/annotator/data/widget/widget.js'
p2161
sS'1.17'
p2162
S'./examples/annotator/data/widget/widget.js'
p2163
ssS'378333f70aa5ce1e3c407b14098043b16a2d3ca8789fe781e46230b4ea5ec6b8'
p2164
(dp2165
S'1.16'
p2166
S'./test/modules/dupe.js'
p2167
sS'1.17'
p2168
S'./test/modules/dupe.js'
p2169
ssS'53dda2cd1cfc3f220a8fbda3b95b1a31eade188196156b26b54c6b01fefb6c90'
p2170
(dp2171
S'1.16'
p2172
S'./test/test-keyboard-utils.js'
p2173
sS'1.17'
p2174
S'./test/test-keyboard-utils.js'
p2175
ssS'cb45348ee915625f0bfd8aa389de83c169bca2de8f6a2a67d333115f3d0d916e'
p2176
(dp2177
S'1.16'
p2178
S'./test/test-url.js'
p2179
sS'1.17'
p2180
S'./test/test-url.js'
p2181
ssS'1a763092dcc9ed5e0acda011a31f401ab22e585144e98965b74265874b09160f'
p2182
(dp2183
S'1.16'
p2184
S'./lib/sdk/places/favicon.js'
p2185
sS'1.17'
p2186
S'./lib/sdk/places/favicon.js'
p2187
ssS'95e485593c9ec58bbb3316e6788d53b22a4fcde8ec5bbf846947b708897aab8f'
p2188
(dp2189
S'1.17'
p2190
S'./test/test-simple-storage.js'
p2191
ssS'1abef1a5b1d8b81b9fce053b4f04740e7408c66d12888ba772cdae562dad4f32'
p2192
(dp2193
S'1.16'
p2194
S'./lib/sdk/widget.js'
p2195
ssS'7ab1542f71d8a9a5f70058bbafffb7e1494cbd96b84ea01fb86ed0b9dc538152'
p2196
(dp2197
S'1.16'
p2198
S'./lib/sdk/keyboard/hotkeys.js'
p2199
sS'1.17'
p2200
S'./lib/sdk/keyboard/hotkeys.js'
p2201
ssS'082dec51cb866849da446ef3e61aac8e47b0e11285014e64a14f3a7d231c0d14'
p2202
(dp2203
S'1.16'
p2204
S'./lib/sdk/window/events.js'
p2205
sS'1.17'
p2206
S'./lib/sdk/window/events.js'
p2207
ssS'80180b63f3a954479c7433ac2731c6e2fdc1433489e52fd7e013c8b1f370087a'
p2208
(dp2209
S'1.16'
p2210
S'./test/test-loader.js'
p2211
sS'1.17'
p2212
S'./test/test-loader.js'
p2213
ssS'17d2b71a3595eefe3ad883ddd1020309f989e61204b4cb27f30ebce8008b027f'
p2214
(dp2215
S'1.16'
p2216
S'./lib/diffpatcher/diff.js'
p2217
sS'1.17'
p2218
S'./lib/diffpatcher/diff.js'
p2219
ssS'6d0695d2ccd904cc06ae6cc060883a486482341292e366316c07dd9c4ef3a9a5'
p2220
(dp2221
S'1.16'
p2222
S'./test/buffers/test-read-types.js'
p2223
sS'1.17'
p2224
S'./test/buffers/test-read-types.js'
p2225
ssS'23aa2be05093fbbec0cd7ef677c872337db107232fa5e0767b3f007d87ab30fa'
p2226
(dp2227
S'1.17'
p2228
S'./test/test-observers.js'
p2229
ssS'2fefb9e10694bcc972213ebe5d037177ba05190bcfa333c6d6ce876c9ace2489'
p2230
(dp2231
S'1.17'
p2232
S'./test/test-widget.js'
p2233
ssS'edcbd4de231d4ef305b484ab9028a7ac9ebfa2b2e9ef1a2e37a72e2c8d5be48e'
p2234
(dp2235
S'1.17'
p2236
S'./test/fixtures/chrome-worker/xhr.js'
p2237
ssS'43a0d8d1a6ff50e087742be5e2e5650ac4e90df326557dd66f044a8dcd241a16'
p2238
(dp2239
S'1.16'
p2240
S'./test/modules/async2.js'
p2241
sS'1.17'
p2242
S'./test/modules/async2.js'
p2243
ssS'e34814bd9ae1c4bdfd333926869c11d04ecae356cf3af0cc373c95840d066ccc'
p2244
(dp2245
S'1.16'
p2246
S'./lib/sdk/test/harness.js'
p2247
sS'1.17'
p2248
S'./lib/sdk/test/harness.js'
p2249
ssS'cc2ae2625a689a3543f1a9e0ddcdc5792f85ac308fa4feb25cf5584318b9a8a4'
p2250
(dp2251
S'1.16'
p2252
S'./lib/sdk/util/deprecate.js'
p2253
sS'1.17'
p2254
S'./lib/sdk/util/deprecate.js'
p2255
ssS'c52ba6bbe8c387a0f1b10abeaf84830665fd4bad1aa09710fe80892ba6c88006'
p2256
(dp2257
S'1.16'
p2258
S'./lib/sdk/places/host/host-query.js'
p2259
sS'1.17'
p2260
S'./lib/sdk/places/host/host-query.js'
p2261
ssS'03623d7e17256202fbc042a1fdf3ea217174d18442466e35aa65931f4fa6f20b'
p2262
(dp2263
S'1.17'
p2264
S'./lib/sdk/system/process.js'
p2265
ssS'4da85a6094389475c3e41ef487d81c3406a3711a038022067aff31104304c9a5'
p2266
(dp2267
S'1.16'
p2268
S'./test/fixtures/native-addon-test/node_modules/test-custom-main-relative/lib/custom-entry.js'
p2269
sS'1.17'
p2270
S'./test/fixtures/native-addon-test/node_modules/test-custom-main-relative/lib/custom-entry.js'
p2271
ssS'3ab30e2935e92af426591053e80b92ece0762711b8f72648af20e4a5fc92a26c'
p2272
(dp2273
S'1.17'
p2274
S'./lib/sdk/system/child_process/subprocess.js'
p2275
ssS'2cfee932e3556d0e04b288b25e3d7a92f95bbd0b4f6985175140f551b24d9118'
p2276
(dp2277
S'1.16'
p2278
S'./test/test-path.js'
p2279
sS'1.17'
p2280
S'./test/test-path.js'
p2281
ssS'3bbce98a22ba4fd94279a3cea3002c21c0c2606b7dbec621140498e2a7558557'
p2282
(dp2283
S'1.17'
p2284
S'./lib/toolkit/loader.js'
p2285
ssS'1c7f058b992d3f108c69c12606fba71572a70cb445e9cd2508611e35698acfd9'
p2286
(dp2287
S'1.16'
p2288
S'./test/test-test-utils-sync.js'
p2289
sS'1.17'
p2290
S'./test/test-test-utils-sync.js'
p2291
ssS'd643e0765afd76d79b93eee5c19cc073bc49be21c658331094afd48d1681d963'
p2292
(dp2293
S'1.16'
p2294
S'./lib/sdk/deprecated/list.js'
p2295
sS'1.17'
p2296
S'./lib/sdk/deprecated/list.js'
p2297
ssS'2b7a5ce2b20c0ae657de4a4aa2d46eea905def54d571c463f1ecd8031447cdbc'
p2298
(dp2299
S'1.16'
p2300
S'./test/test-uuid.js'
p2301
sS'1.17'
p2302
S'./test/test-uuid.js'
p2303
ssS'f5b232f0664fbc848eb0d70513bdc3aa7680915cc3fe5918fc85be622fded3da'
p2304
(dp2305
S'1.17'
p2306
S'./lib/sdk/simple-storage.js'
p2307
ssS'c1e346ff69c4967b6c96ee70e8ac3b2b334ed7557229331bcf13d4df5b4ab037'
p2308
(dp2309
S'1.17'
p2310
S'./lib/sdk/test/loader.js'
p2311
ssS'118fbbc4f961b12690fd850857a5a01f9d6790533a5aefdd7abe26d5729f78f3'
p2312
(dp2313
S'1.16'
p2314
S'./test/fixtures/test-trusted-document.html'
p2315
sS'1.17'
p2316
S'./test/fixtures/test-trusted-document.html'
p2317
ssS'78c3503603ede662f8fafceedc18fca0b4a48e2f016989c643683074d1cf4c98'
p2318
(dp2319
S'1.16'
p2320
S'./python-lib/cuddlefish/tests/linker-files/three-deps/three-c/lib/sub/foo.js'
p2321
sS'1.17'
p2322
S'./python-lib/cuddlefish/tests/linker-files/three-deps/three-c/lib/sub/foo.js'
p2323
ssS'9818185a746fa1c92f2643f30bd32e83b167d4f101d2013ca2d58f80b635433b'
p2324
(dp2325
S'1.16'
p2326
S'./lib/sdk/content/thumbnail.js'
p2327
sS'1.17'
p2328
S'./lib/sdk/content/thumbnail.js'
p2329
ssS'ffe7e79e2d77562eadfa2e91296af47c06086b00e44800d984da704ae22e1cf1'
p2330
(dp2331
S'1.16'
p2332
S'./test/modules/color.js'
p2333
sS'1.17'
p2334
S'./test/modules/color.js'
p2335
ssS'ac9e77f80d834355cf987bd194f97aebf3c9dd855828c9f7b205675fc42f0582'
p2336
(dp2337
S'1.16'
p2338
S'./test/test-window-utils-global-private-browsing.js'
p2339
sS'1.17'
p2340
S'./test/test-window-utils-global-private-browsing.js'
p2341
ssS'1ce98230f292ef427c6015eb539aefd7382b420bdbb901f8bf25a4023983f00e'
p2342
(dp2343
S'1.17'
p2344
S'./test/addons/addon-page/main.js'
p2345
ssS'6c9a2c9c498c3e6efba0264d2a7dc90acdab747baa5d6dfdd612a8e7878a37d9'
p2346
(dp2347
S'1.17'
p2348
S'./lib/sdk/ui/button/action.js'
p2349
ssS'28859ca53d10b4b691e3a9977058416c6aa67f113bab5fca6187195c1f9a7435'
p2350
(dp2351
S'1.16'
p2352
S'./test/modules/dupeSetExports.js'
p2353
sS'1.17'
p2354
S'./test/modules/dupeSetExports.js'
p2355
ssS'9c3dfd0312c28a9e6cdd99fbb819ecd5fc34fee42fb7e5f44e937717894f894d'
p2356
(dp2357
S'1.16'
p2358
S'./test/test-preferences-service.js'
p2359
sS'1.17'
p2360
S'./test/test-preferences-service.js'
p2361
ssS'e540ead3ba591b2c60f241f1d95e982f8184e1a38f76efc5da19c1d66cb60996'
p2362
(dp2363
S'1.16'
p2364
S'./lib/diffpatcher/test/patch.js'
p2365
sS'1.17'
p2366
S'./lib/diffpatcher/test/patch.js'
p2367
ssS'0d91ff03b09fdc61cde21110cc1aee22e49c5059abcc21011fb4f1088e5f9a4e'
p2368
(dp2369
S'1.17'
p2370
S'./lib/sdk/system/child_process/subprocess_worker_unix.js'
p2371
ssS'17c8f0cd6755860baf73b3af73fd3f86e726fe6b9707a6450fdc265328bb2602'
p2372
(dp2373
S'1.17'
p2374
S'./lib/sdk/system.js'
p2375
ssS'e7cafb2ca8c57a136bc686679de11c8fe40950a13ba91a2de59ab6e9ac189fbb'
p2376
(dp2377
S'1.16'
p2378
S'./test/test-content-worker.js'
p2379
ssS'0f4408e8f5847d7b55e4f6dce55b666c130e1ea55328ed20f0ad99e713a24c26'
p2380
(dp2381
S'1.16'
p2382
S'./lib/sdk/lang/type.js'
p2383
sS'1.17'
p2384
S'./lib/sdk/lang/type.js'
p2385
ssS'69ab52fe336c352bad6756842e785523b91f7cc7907d46206be300f07d494bd6'
p2386
(dp2387
S'1.16'
p2388
S'./lib/sdk/notifications.js'
p2389
ssS'e158f6ba44688197a09f7de00828437cf56daa40ddea35b2bf663a4be3c038e2'
p2390
(dp2391
S'1.16'
p2392
S'./test/test-type.js'
p2393
sS'1.17'
p2394
S'./test/test-type.js'
p2395
ssS'fff3f4f37cb601521e9d1953fa3391fca514efbbec9eff6f9c4a7b394f8577c7'
p2396
(dp2397
S'1.16'
p2398
S'./lib/sdk/io/file.js'
p2399
sS'1.17'
p2400
S'./lib/sdk/io/file.js'
p2401
ssS'a17fd7c9959e567012484bc1e67e93a250a269af5e7512226d9b8607b8845f93'
p2402
(dp2403
S'1.16'
p2404
S'./lib/sdk/dom/events.js'
p2405
sS'1.17'
p2406
S'./lib/sdk/dom/events.js'
p2407
ssS'45e9fbcb8b01580f53a688b7f28c160a12d7e627ef95e91556856d6d194e5a74'
p2408
(dp2409
S'1.16'
p2410
S'./lib/sdk/private-browsing/window/utils.js'
p2411
sS'1.17'
p2412
S'./lib/sdk/private-browsing/window/utils.js'
p2413
ssS'1bb606eb00c805375cab97550c038b0bdbda275ae1b2eca9452d9e34b8c77911'
p2414
(dp2415
S'1.16'
p2416
S'./lib/sdk/ui/toolbar/model.js'
p2417
sS'1.17'
p2418
S'./lib/sdk/ui/toolbar/model.js'
p2419
ssS'ccc6c8ccbe6b9d82b91e057354bd1d32024e1aa343b19f7aa68354204044ec42'
p2420
(dp2421
S'1.16'
p2422
S'./lib/sdk/util/list.js'
p2423
sS'1.17'
p2424
S'./lib/sdk/util/list.js'
p2425
ssS'5b80f37bf6708c4933e1aca3da88d42b34f6b5a7774e74949a4efa1e2d77c1e8'
p2426
(dp2427
S'1.16'
p2428
S'./test/fixtures/native-addon-test/node_modules/test-default-main/index.js'
p2429
sS'1.17'
p2430
S'./test/fixtures/native-addon-test/node_modules/test-default-main/index.js'
p2431
ssS'd7d30b606f3506e010f5ed1a32200cdef1ce8a039fca36f10df8e6f95c308033'
p2432
(dp2433
S'1.17'
p2434
S'./lib/sdk/windows/tabs-firefox.js'
p2435
ssS'5bfa596ec90ca491f5323ba11a91d7163adaf75f7a937914fd9aa1e63a882df2'
p2436
(dp2437
S'1.16'
p2438
S'./lib/sdk/keyboard/observer.js'
p2439
sS'1.17'
p2440
S'./lib/sdk/keyboard/observer.js'
p2441
ssS'360594dc580b541679c4eb2da284685f0375c7da14a75a12904d35ca593f51ee'
p2442
(dp2443
S'1.16'
p2444
S'./test/test-method.js'
p2445
sS'1.17'
p2446
S'./test/test-method.js'
p2447
ssS'3fe7a019de21ed39e70c4e1fb6cf766c5b541bcbb16b9336141a085d64a462d5'
p2448
(dp2449
S'1.17'
p2450
S'./test/addons/private-browsing-supported/test-global-private-browsing.js'
p2451
ssS'ceb04288fd0191fb07d161bfb8973ccea6ed1c005b8ad361e6d9ae7289333d83'
p2452
(dp2453
S'1.16'
p2454
S'./python-lib/cuddlefish/tests/static-files/packages/minimal/lib/main.js'
p2455
sS'1.17'
p2456
S'./python-lib/cuddlefish/tests/static-files/packages/minimal/lib/main.js'
p2457
ssS'3ecb45bf8e5e498102fc8a9c9d7a82b3d96f9104b535579a4e6ae5ecf7376df1'
p2458
(dp2459
S'1.16'
p2460
S'./lib/sdk/ui/state.js'
p2461
ssS'e9f6cb2d3ec826393e66a01396844e04e36b0becafb0b5692dd0e32d9139f0ef'
p2462
(dp2463
S'1.16'
p2464
S'./lib/sdk/stylesheet/utils.js'
p2465
sS'1.17'
p2466
S'./lib/sdk/stylesheet/utils.js'
p2467
ssS'c23b721993a2848846ba152b91c82066c4aaddd92701474a62262abed55dbcbb'
p2468
(dp2469
S'1.16'
p2470
S'./app-extension/bootstrap.js'
p2471
ssS'1845fce7ca7626cb2c7c0c3d647bb1bce1fe0a3a6ba9c4107f4fac00be5f89e1'
p2472
(dp2473
S'1.16'
p2474
S'./test/fixtures/loader/unsupported/firefox.js'
p2475
sS'1.17'
p2476
S'./test/fixtures/loader/unsupported/firefox.js'
p2477
ssS'592e7977832b266f57f7d6cfdc4dc8e8a0ab01d307083574c566212f735a7128'
p2478
(dp2479
S'1.16'
p2480
S'./python-lib/cuddlefish/tests/e10s-adapter-files/packages/foo/lib/bar-e10s-adapter.js'
p2481
sS'1.17'
p2482
S'./python-lib/cuddlefish/tests/e10s-adapter-files/packages/foo/lib/bar-e10s-adapter.js'
p2483
ssS'40f2e95ff33fdb7b8e5a08d767fe49c1aaa4fd500f32a1a0e1d2a27195af6e58'
p2484
(dp2485
S'1.16'
p2486
S'./lib/sdk/deprecated/light-traits.js'
p2487
sS'1.17'
p2488
S'./lib/sdk/deprecated/light-traits.js'
p2489
ssS'5be03d2de9cd246109e8f3646d99631a45bfbd98b126a58623dea4f03993ea64'
p2490
(dp2491
S'1.16'
p2492
S'./lib/sdk/event/target.js'
p2493
sS'1.17'
p2494
S'./lib/sdk/event/target.js'
p2495
ssS'c39fa4dec856ea6e36de23a913865f0b6c53245fa3d1528e2aa1ee71ab7890d5'
p2496
(dp2497
S'1.16'
p2498
S'./test/fixtures/loader/cycles/c.js'
p2499
sS'1.17'
p2500
S'./test/fixtures/loader/cycles/c.js'
p2501
ssS'f1aacefd1e26a49a2a8a668ef58d55146b7be86f706ff09fb6101ef0b14b31db'
p2502
(dp2503
S'1.16'
p2504
S'./test/test-deprecated-list.js'
p2505
sS'1.17'
p2506
S'./test/test-deprecated-list.js'
p2507
ssS'949a8cff3e0453720895a8945bb9f4b64ae9b30d1420ff8d07714050b9a3ff24'
p2508
(dp2509
S'1.17'
p2510
S'./test/test-functional.js'
p2511
ssS'8832a3f0752a852a211966b846e1a424419e53c4422e3b76ff6667019dea9e98'
p2512
(dp2513
S'1.16'
p2514
S'./lib/sdk/preferences/service.js'
p2515
ssS'e08f8b97ba1d2140799ee42f15119670400fa255b4deadfaf3dcde02244567f5'
p2516
(dp2517
S'1.16'
p2518
S'./python-lib/cuddlefish/tests/linker-files/three-deps/three-c/lib/main.js'
p2519
sS'1.17'
p2520
S'./python-lib/cuddlefish/tests/linker-files/three-deps/three-c/lib/main.js'
p2521
ssS'744ac8b409d4fb647a62d7bf2ecfcfea8012f533b0e0f62365f46805c5a9f34b'
p2522
(dp2523
S'1.16'
p2524
S'./python-lib/cuddlefish/tests/linker-files/three-deps/three-a/lib/subdir/subfile.js'
p2525
sS'1.17'
p2526
S'./python-lib/cuddlefish/tests/linker-files/three-deps/three-a/lib/subdir/subfile.js'
p2527
ssS'e888ff3a15a2de461e8c31510760cc1c33bd5909c06375d2372aec93e4edf2ab'
p2528
(dp2529
S'1.16'
p2530
S'./lib/sdk/ui.js'
p2531
sS'1.17'
p2532
S'./lib/sdk/ui.js'
p2533
ssS'1b067a62df8bb1d123818b71b3a7c0d8cb2cd45e676d1580e311869b7377220c'
p2534
(dp2535
S'1.17'
p2536
S'./test/test-page-worker.js'
p2537
ssS'5dba9600e738f466900c3545d6ae50ba2e30129f974717ae46cf65f0b869a48a'
p2538
(dp2539
S'1.16'
p2540
S'./test/test-event-core.js'
p2541
sS'1.17'
p2542
S'./test/test-event-core.js'
p2543
ssS'fa5b3336add695568c3f93b1c88a78a8016681ca56e651134b61b53a54af5a77'
p2544
(dp2545
S'1.17'
p2546
S'./test/test-ui-frame.js'
p2547
ssS'0a4fdc60d6b0c6429c0778e73bd7af733e0b1a2bd91a68cd8fd880bc631920b1'
p2548
(dp2549
S'1.17'
p2550
S'./test/test-reference.js'
p2551
ssS'249a4e44b5b62b26c2f7ccae4dc40df44ec6ca86b74498885a7aed59059b5c50'
p2552
(dp2553
S'1.17'
p2554
S'./lib/sdk/model/core.js'
p2555
ssS'8e5fd9a63b2061421dc220c31ed61cb4527c1dd721ffe79667b1faac7420a06b'
p2556
(dp2557
S'1.16'
p2558
S'./test/test-host-events.js'
p2559
sS'1.17'
p2560
S'./test/test-host-events.js'
p2561
ssS'915e59fb1fb2b243ed141555b556303e0ab340208211f16e5a09ebc8ff67c39f'
p2562
(dp2563
S'1.16'
p2564
S'./lib/sdk/content/content.js'
p2565
sS'1.17'
p2566
S'./lib/sdk/content/content.js'
p2567
ssS'88178fe3781326ad4da88dff95261377189086e47f45814438d5d08e9161c3de'
p2568
(dp2569
S'1.17'
p2570
S'./test/addons/self/main.js'
p2571
ssS'37fbfddcc4778b5948686773dfe2206e207ec09a0e73a1cb7b81b5d86a636418'
p2572
(dp2573
S'1.16'
p2574
S'./test/test-indexed-db.js'
p2575
sS'1.17'
p2576
S'./test/test-indexed-db.js'
p2577
ssS'aec9c77fcf16cf00a5eae2e9b652f10152144e8262909fecd4eef977e28e8a5f'
p2578
(dp2579
S'1.16'
p2580
S'./test/test-preferences-target.js'
p2581
sS'1.17'
p2582
S'./test/test-preferences-target.js'
p2583
ssS'eb87196d166fe62199a974ef37409f9ca1c9f87ae865d3883c5d8e08890fe7b0'
p2584
(dp2585
S'1.16'
p2586
S'./lib/sdk/core/disposable.js'
p2587
ssS'be9706b280f5c4107acd9b84ae5cd167ae20b85a1a8277c53ae2fe6db97ae5e4'
p2588
(dp2589
S'1.16'
p2590
S'./lib/sdk/page-mod/match-pattern.js'
p2591
sS'1.17'
p2592
S'./lib/sdk/page-mod/match-pattern.js'
p2593
ssS'159f0e12aac1bdbc0065f240ff5a9377b0eefae0cb845526509e97aeeb5e07a3'
p2594
(dp2595
S'1.16'
p2596
S'./lib/sdk/passwords/utils.js'
p2597
sS'1.17'
p2598
S'./lib/sdk/passwords/utils.js'
p2599
ssS'7a983953c87d07e63f71bbfdcb06d11df60c4d67cfd45629f6dc96c773fe1dbb'
p2600
(dp2601
S'1.16'
p2602
S'./lib/sdk/tabs/helpers.js'
p2603
sS'1.17'
p2604
S'./lib/sdk/tabs/helpers.js'
p2605
ssS'd3de85951166565419043c074c857658405575ec39a8ff0605bab6b0b616e6ff'
p2606
(dp2607
S'1.17'
p2608
S'./lib/sdk/ui/button/view.js'
p2609
ssS'9fc4bf9b6ff08c3709702c31c5731db46e6c45feb82e3805200577631441d393'
p2610
(dp2611
S'1.16'
p2612
S'./test/test-page-mod.js'
p2613
ssS'67cef55e2e66bf2ffbb8420b8e3b58e6f3174fc0cfc4d0cfa28cd31455f2a7f3'
p2614
(dp2615
S'1.16'
p2616
S'./test/modules/types/cat.js'
p2617
sS'1.17'
p2618
S'./test/modules/types/cat.js'
p2619
ssS'5bc2bdfd1bf17c507604735f6392c1d7c06ef46da4ba9f0c55566e29ba47963c'
p2620
(dp2621
S'1.17'
p2622
S'./lib/sdk/tabs/utils.js'
p2623
ssS'd8e7ce9ea7277aa87abaf286bd4ee907e34d06ef415fa2baf0ed189a2faac5fa'
p2624
(dp2625
S'1.16'
p2626
S'./lib/sdk/test/loader.js'
p2627
ssS'75244bf3e504a281f209a16732dfae38da968fe3e94da17ea8626581efc40a51'
p2628
(dp2629
S'1.17'
p2630
S'./test/test-disposable.js'
p2631
ssS'a63107a9709123cb3a1e2508cc4a8eaeddbeb7814fbe5d5136745bc83130cf67'
p2632
(dp2633
S'1.16'
p2634
S'./lib/diffpatcher/test/tap.js'
p2635
sS'1.17'
p2636
S'./lib/diffpatcher/test/tap.js'
p2637
ssS'a1e291921dd19def134bb77b7265a9b9576f3869b274ba35128cc132da132973'
p2638
(dp2639
S'1.17'
p2640
S'./test/test-windows-common.js'
p2641
ssS'80c7b0d9a1ebbcf1c2ae084d8d82979dcb48f9aaa42b98fed70f09bd1cba62a6'
p2642
(dp2643
S'1.16'
p2644
S'./python-lib/cuddlefish/tests/e10s-adapter-files/packages/foo/lib/foo.js'
p2645
sS'1.17'
p2646
S'./python-lib/cuddlefish/tests/e10s-adapter-files/packages/foo/lib/foo.js'
p2647
ssS'fc19aca11e92ab38e97ca0d8dd251dc7a6ed08c802613a0320a42f182c5ba557'
p2648
(dp2649
S'1.16'
p2650
S'./lib/node/os.js'
p2651
sS'1.17'
p2652
S'./lib/node/os.js'
p2653
ssS'777c1db8724bacdc96f256c4e206c51920aaf30ac836604665f13a7544347ecb'
p2654
(dp2655
S'1.16'
p2656
S'./test/test-array.js'
p2657
sS'1.17'
p2658
S'./test/test-array.js'
p2659
ssS'fe1dc64b27173ef466540e61b26719f937052920dade391e8bce1dfe386c5df0'
p2660
(dp2661
S'1.16'
p2662
S'./test/addons/places/favicon-helpers.js'
p2663
sS'1.17'
p2664
S'./test/addons/places/favicon-helpers.js'
p2665
ssS'466d0eb8328a2460d7c8e6571613c34cbf5dd14da0eadb1e59d4bb7e231e77dc'
p2666
(dp2667
S'1.16'
p2668
S'./test/test-object.js'
p2669
sS'1.17'
p2670
S'./test/test-object.js'
p2671
ssS'da04463eac46259b0a1babde6a4424f0cccf18255d93f4ff534b1f6e10bda949'
p2672
(dp2673
S'1.16'
p2674
S'./test/fixtures/native-addon-test/dir/a.js'
p2675
sS'1.17'
p2676
S'./test/fixtures/native-addon-test/dir/a.js'
p2677
ssS'a7f4522b6bd7eb84e714f0e3159a58d56607e7fa9e98f455ad63b63e32a1d6f5'
p2678
(dp2679
S'1.17'
p2680
S'./test/addons/private-browsing-supported/test-selection.js'
p2681
ssS'c66a0c81f5a42730744f6c09952284473db8c965b4c7284b2c66a6ed58d5bd86'
p2682
(dp2683
S'1.17'
p2684
S'./test/test-private-browsing.js'
p2685
ssS'782f25ebe1440a5c93d346e2f90326442039585d0a63c4f5abdc47dd41b426cf'
p2686
(dp2687
S'1.17'
p2688
S'./lib/sdk/content/utils.js'
p2689
ssS'33255fa7648cee29ece7987f9f7b5c98ef3196eda8f6452ccb22d39a271a4120'
p2690
(dp2691
S'1.17'
p2692
S'./lib/sdk/l10n.js'
p2693
ssS'd20551e574189e746d391f45d03d16781d933b4ad08a04cabcde8663b85107f9'
p2694
(dp2695
S'1.16'
p2696
S'./test/test-sandbox.js'
p2697
ssS'0744baf53ed1df9579c7bc9381045a84d991bee2f64fd41afbb8313e84885f0f'
p2698
(dp2699
S'1.16'
p2700
S'./test/windows/test-firefox-windows.js'
p2701
sS'1.17'
p2702
S'./test/windows/test-firefox-windows.js'
p2703
ssS'6f8d031868593912953ec78828c3aa25767a5e6cfb1ae0ddbd59dc15ef58a299'
p2704
(dp2705
S'1.16'
p2706
S'./lib/sdk/io/text-streams.js'
p2707
sS'1.17'
p2708
S'./lib/sdk/io/text-streams.js'
p2709
ssS'f9be5aaafd2437b943e1234f0bacdcf7250417a78f6f6b2e23b36bab356a8142'
p2710
(dp2711
S'1.16'
p2712
S'./test/addons/simple-prefs-regression/app-extension/bootstrap.js'
p2713
sS'1.17'
p2714
S'./test/addons/simple-prefs-regression/app-extension/bootstrap.js'
p2715
ssS'399616b6528808d7035984785f08edc6d27df50bc65bf4889b74071ad9b6276a'
p2716
(dp2717
S'1.16'
p2718
S'./test/modules/cheetah.js'
p2719
sS'1.17'
p2720
S'./test/modules/cheetah.js'
p2721
ssS'03a126247210a1b9dfcda612e6eb4abf677f64d8c5206129906fb89ed5faf307'
p2722
(dp2723
S'1.17'
p2724
S'./examples/reading-data/lib/main.js'
p2725
ssS'b96c3e9188a19b1cb1a9998e0cdfe20e9c83ad2f64a09adedc35e29c79f9fafa'
p2726
(dp2727
S'1.16'
p2728
S'./lib/sdk/panel/utils.js'
p2729
ssS'11f86ffc7dec9fe074937a88ee5713a0e765f0061a62c410e0145b5243bda780'
p2730
(dp2731
S'1.16'
p2732
S'./test/addons/private-browsing-supported/test-global-private-browsing.js'
p2733
ssS'ea4816968c0353252c5cc31c88d67e3f3c5da13629d663b3ddf08e39348e6d1f'
p2734
(dp2735
S'1.17'
p2736
S'./test/addons/unsafe-content-script/main.js'
p2737
ssS'e83254cbed6994cbd441bcd317880679a37ea89d909bfea1ab86d957a85c0c09'
p2738
(dp2739
S'1.16'
p2740
S'./test/test-traits-core.js'
p2741
sS'1.17'
p2742
S'./test/test-traits-core.js'
p2743
ssS'47281b2efd80bfd434f7b291b3ffa065ce9d45e909b11556340d189d9e0ff444'
p2744
(dp2745
S'1.16'
p2746
S'./test/test-content-loader.js'
p2747
sS'1.17'
p2748
S'./test/test-content-loader.js'
p2749
ssS'95083772b05864616210a31a54cfb388d627df1c1c294cf517cf3f1fba708a22'
p2750
(dp2751
S'1.16'
p2752
S'./test/addons/require/same-folder.js'
p2753
sS'1.17'
p2754
S'./test/addons/require/same-folder.js'
p2755
ssS'16aab610ed33cf676fc28cc322244e8ec67161ccb04fe90a628c0832462bc184'
p2756
(dp2757
S'1.16'
p2758
S'./lib/sdk/addon/events.js'
p2759
sS'1.17'
p2760
S'./lib/sdk/addon/events.js'
p2761
ssS'4512195ca14c8d0f5d0499b864e181de88ee0b2ce94c9d9712b56c470e9b73c5'
p2762
(dp2763
S'1.17'
p2764
S'./test/addons/places/tests/test-places-utils.js'
p2765
ssS'eb66b703d9121669a8d24bfdf22d681b253754942630b880f06b65cb01a93fc4'
p2766
(dp2767
S'1.16'
p2768
S'./test/test-node-os.js'
p2769
sS'1.17'
p2770
S'./test/test-node-os.js'
p2771
ssS'7df8de85d22355bcbb78d75af8811c903b90f3066aaeb8b4e4f61b006b762241'
p2772
(dp2773
S'1.16'
p2774
S'./lib/sdk/system/environment.js'
p2775
sS'1.17'
p2776
S'./lib/sdk/system/environment.js'
p2777
ssS'b55e87b3338807fdcf9aeed0e2d3be42e630973662a90dcc2347ecf23c52ccca'
p2778
(dp2779
S'1.16'
p2780
S'./test/addons/places/main.js'
p2781
ssS'640525df39dbadb31f840d388b046b7947b3713afef231c6414fe8eaa9204da0'
p2782
(dp2783
S'1.16'
p2784
S'./lib/sdk/panel/window.js'
p2785
sS'1.17'
p2786
S'./lib/sdk/panel/window.js'
p2787
ssS'd829aa8da35ce42b9d6d5130b41c6f9dabc90ae5c4d75a45db553b91e5325e71'
p2788
(dp2789
S'1.16'
p2790
S'./test/test-request.js'
p2791
sS'1.17'
p2792
S'./test/test-request.js'
p2793
ssS'67d10f353ebb679667a7c3938a4aabe2132028ab5499fc582dcd81b9ece264f1'
p2794
(dp2795
S'1.17'
p2796
S'./lib/sdk/ui/button/contract.js'
p2797
ssS'a1c1646150f436ac87e18a5b3cbbcb46efdf1199fd7549016292c4096af6716f'
p2798
(dp2799
S'1.16'
p2800
S'./test/fixtures/native-addon-test/newmodule/index.js'
p2801
sS'1.17'
p2802
S'./test/fixtures/native-addon-test/newmodule/index.js'
p2803
ssS'271f711b9e57dba7db5da2f7774a7151f037d1b8a72c8c2d69d79bc08cb7713c'
p2804
(dp2805
S'1.16'
p2806
S'./lib/sdk/passwords.js'
p2807
sS'1.17'
p2808
S'./lib/sdk/passwords.js'
p2809
ssS'968c6f4ceace7a9348b1adfbc25a0511ea0c5a507ba6f63d9f3d47d4a95575af'
p2810
(dp2811
S'1.17'
p2812
S'./test/test-tab.js'
p2813
ssS'e28a2817ef135108f3d528d287a572a236abeaaba229d4870875e27bfdcc8c71'
p2814
(dp2815
S'1.16'
p2816
S'./lib/sdk/tabs/tabs.js'
p2817
ssS'6c905849d74f8f92d6157e9e599eff6c9b541a4d7e99368c912b21a8bfffc3e4'
p2818
(dp2819
S'1.16'
p2820
S'./test/fixtures/test.html'
p2821
sS'1.17'
p2822
S'./test/fixtures/test.html'
p2823
ssS'fb13376d5f462ae94def86c43af9a8e7f742b61ea13acf974413184e8283d084'
p2824
(dp2825
S'1.16'
p2826
S'./lib/sdk/windows/tabs-firefox.js'
p2827
ssS'd0cbe3b005b88e7a4086786c49ee6f32f8c1142c43cc0aef0f46cec2c9390e5e'
p2828
(dp2829
S'1.16'
p2830
S'./test/addons/private-browsing-supported/test-selection.js'
p2831
ssS'717aab26ae7eb7ad73e30f07f23e4321e3903a6aacfbfd6aea1efea77e3bdd56'
p2832
(dp2833
S'1.16'
p2834
S'./lib/sdk/tabs/common.js'
p2835
sS'1.17'
p2836
S'./lib/sdk/tabs/common.js'
p2837
ssS'fc52620e8d58e9175ffe7e40b99650e1212170ad7fd238a8e6c2ade5498c4168'
p2838
(dp2839
S'1.16'
p2840
S'./test/test-xhr.js'
p2841
sS'1.17'
p2842
S'./test/test-xhr.js'
p2843
ssS'8f412a155a6ba2507f7e0d8a1bb12a2dd44a6a0b9aab8971563d7f014cc2a065'
p2844
(dp2845
S'1.16'
p2846
S'./lib/sdk/console/traceback.js'
p2847
sS'1.17'
p2848
S'./lib/sdk/console/traceback.js'
p2849
ssS'41e4436b46b8c69c3ddeb2f042beda9003b566864d4cf90d432156fba214bd3b'
p2850
(dp2851
S'1.16'
p2852
S'./lib/sdk/clipboard.js'
p2853
ssS'fe119cf20b4ee11e7985f851a3cfcc1d80bf1f3ca8671ba19ff13efba095a5db'
p2854
(dp2855
S'1.16'
p2856
S'./lib/sdk/content/mod.js'
p2857
ssS'7a280a5bdcb0668c1557aaa9b13ae7fbba657326f8f594c3559bd95578a0446a'
p2858
(dp2859
S'1.16'
p2860
S'./lib/sdk/window/utils.js'
p2861
ssS'80cc8f83b5e523da1e603ff0a14b7a5ca8b9be1ded6f0f21e52636b415e459b4'
p2862
(dp2863
S'1.16'
p2864
S'./test/test-unload.js'
p2865
sS'1.17'
p2866
S'./test/test-unload.js'
p2867
ssS'f308b26dc31f6fe2a0b8ac11badeb610a03d9b488e381d5fef241f7f96f9407d'
p2868
(dp2869
S'1.17'
p2870
S'./lib/sdk/tabs.js'
p2871
ssS'591a3f7240555c5fcd585062dbf9125006a45819f7e85e0b5f4dedb48161fb3d'
p2872
(dp2873
S'1.16'
p2874
S'./test/private-browsing/helper.js'
p2875
sS'1.17'
p2876
S'./test/private-browsing/helper.js'
p2877
ssS'6da91194bbc58347de2187f6718f46b9c9a8652deb3687ed7872fcd0cd65569c'
p2878
(dp2879
S'1.16'
p2880
S'./lib/sdk/loader/cuddlefish.js'
p2881
sS'1.17'
p2882
S'./lib/sdk/loader/cuddlefish.js'
p2883
ssS'80fe168495834cb652fe9a485900e7019086e7331323f970756994fbd6747b51'
p2884
(dp2885
S'1.17'
p2886
S'./examples/reddit-panel/tests/test-main.js'
p2887
ssS'851d7823d26d93ad216264ba4be78ef762acb84fb19b963418ec4f11b46b3797'
p2888
(dp2889
S'1.16'
p2890
S'./examples/reddit-panel/tests/test-main.js'
p2891
ssS'4b5e5d2957a39ef5564726c20d68ca0daf3b51308a08e8106a31836c6a99b9de'
p2892
(dp2893
S'1.17'
p2894
S'./test/test-promise.js'
p2895
ssS'a4d877ddcfb337b61e5c7db803621ef1417e9af6739b795067b230d0db6b4aa1'
p2896
(dp2897
S'1.16'
p2898
S'./python-lib/cuddlefish/mobile-utils/bootstrap.js'
p2899
sS'1.17'
p2900
S'./python-lib/cuddlefish/mobile-utils/bootstrap.js'
p2901
ssS'2a6e730b5651e3cc801adf60787d6d146455e8c044e8a30b6c62283c50161743'
p2902
(dp2903
S'1.16'
p2904
S'./test/fixtures/loader/json/test.json.js'
p2905
sS'1.17'
p2906
S'./test/fixtures/loader/json/test.json.js'
p2907
ssS'c9e2f17f1480195bc1c3f4e7c6db9875ab43cf4c3d9e1b5ab0d4c8db7a94eb63'
p2908
(dp2909
S'1.17'
p2910
S'./test/test-system-events.js'
p2911
ssS'7d8b25145a5eff230ddffb131acd0ea2858636131666f38102eed5c6a5d905d1'
p2912
(dp2913
S'1.16'
p2914
S'./lib/sdk/l10n.js'
p2915
ssS'03157a722fb6b490e74141fd68a0476c9e1f886d9ece8eb5dbadbd56883125e7'
p2916
(dp2917
S'1.16'
p2918
S'./lib/sdk/window/helpers.js'
p2919
sS'1.17'
p2920
S'./lib/sdk/window/helpers.js'
p2921
ssS'61b7eb81f292cc583f908508ca99f5a4a52577b246950ebde9480096a5ee2d7b'
p2922
(dp2923
S'1.16'
p2924
S'./examples/reddit-panel/lib/main.js'
p2925
ssS'fda35e54f40b9cf67e65d9d51430257dffe135b19319e4c1df9960bbda3e498b'
p2926
(dp2927
S'1.16'
p2928
S'./lib/sdk/selection.js'
p2929
sS'1.17'
p2930
S'./lib/sdk/selection.js'
p2931
ssS'248b8a9182b96daa54eb1b75198be9827e081e5d8baafb53a6e0c1b1d527eed4'
p2932
(dp2933
S'1.16'
p2934
S'./lib/sdk/frame/hidden-frame.js'
p2935
sS'1.17'
p2936
S'./lib/sdk/frame/hidden-frame.js'
p2937
ssS'0f8ba4fc890dcde27350b4ef52064b0d03235b26d97c0310aaa3af3af53fb681'
p2938
(dp2939
S'1.16'
p2940
S'./lib/sdk/places/bookmarks.js'
p2941
sS'1.17'
p2942
S'./lib/sdk/places/bookmarks.js'
p2943
ssS'5ac17f7b4da666994acd9176df7772672b09550f3c1a9cce07f033ae2971ac62'
p2944
(dp2945
S'1.16'
p2946
S'./test/fixtures/chrome-worker/addEventListener.js'
p2947
sS'1.17'
p2948
S'./test/fixtures/chrome-worker/addEventListener.js'
p2949
ssS'deb1365c208631d771df05680b5d6a9a4bee088c78a3766efaab4acb555df341'
p2950
(dp2951
S'1.16'
p2952
S'./lib/sdk/deprecated/api-utils.js'
p2953
ssS'a4c6093ea7ca458dc7daa864771c500efb22bdb77b70559313e80c1d4a57b1d7'
p2954
(dp2955
S'1.16'
p2956
S'./examples/annotator/data/editor/annotation-editor.js'
p2957
sS'1.17'
p2958
S'./examples/annotator/data/editor/annotation-editor.js'
p2959
ssS'c1d5d6e3d50acb505b77db535f9386e672f8107214e07f897f81ef2129507a4f'
p2960
(dp2961
S'1.16'
p2962
S'./test/addons/require/tabs.js'
p2963
sS'1.17'
p2964
S'./test/addons/require/tabs.js'
p2965
ssS'25366573750d058442bc9512db876f43730e3ba190490d33e5b451e3f8c9b493'
p2966
(dp2967
S'1.16'
p2968
S'./test/test-frame-utils.js'
p2969
sS'1.17'
p2970
S'./test/test-frame-utils.js'
p2971
ssS'1a23795a77640c080374e081a05229cb9b9b99a085349c205daf4a5a5cca7740'
p2972
(dp2973
S'1.16'
p2974
S'./examples/toolbar-api/data/index.html'
p2975
sS'1.17'
p2976
S'./examples/toolbar-api/data/index.html'
p2977
ssS'10112cb3a0a057e628a8e10f635a5fd4915122b3010128eacd7ae0a94f42b492'
p2978
(dp2979
S'1.16'
p2980
S'./test/test-deprecate.js'
p2981
sS'1.17'
p2982
S'./test/test-deprecate.js'
p2983
ssS'bfd74f8f86c43a5f4b5553e65f3d9bf8a5b31c5d3fbab5a40aef4e248d5ddd57'
p2984
(dp2985
S'1.16'
p2986
S'./lib/sdk/event/dom.js'
p2987
ssS'6b7089d0adf29ca7397b81883e65bd9820652d0aff10d1aecad2e693088f3401'
p2988
(dp2989
S'1.16'
p2990
S'./lib/sdk/util/collection.js'
p2991
sS'1.17'
p2992
S'./lib/sdk/util/collection.js'
p2993
ssS'9604c6d5b646a682c0146069dcfd4a25a0a856c4de0a249248471fbfd27b62a6'
p2994
(dp2995
S'1.16'
p2996
S'./examples/reading-data/tests/test-main.js'
p2997
ssS'ec6cf35a3c689390c3c312e428464a29ace7c1b297c83444bc1ac3534b37bc85'
p2998
(dp2999
S'1.16'
p3000
S'./examples/annotator/data/editor/annotation-editor.html'
p3001
sS'1.17'
p3002
S'./examples/annotator/data/editor/annotation-editor.html'
p3003
ssS'edb819b6b2f56ef0e9f58dbd325babea64d105a5bf7c3fe09d7b318c59490398'
p3004
(dp3005
S'1.17'
p3006
S'./lib/sdk/io/buffer.js'
p3007
ssS'1acb7550713a6ae4e595b0b4504263e4c2544825b9237d7188c90be47fa3d8a7'
p3008
(dp3009
S'1.16'
p3010
S'./test/fixtures/loader/cycles/a.js'
p3011
sS'1.17'
p3012
S'./test/fixtures/loader/cycles/a.js'
p3013
ssS'ef6608d748733ac19b6b1f99b3c6fa353c8558b0dfcb45680dd00e760ed63ce3'
p3014
(dp3015
S'1.16'
p3016
S'./lib/sdk/addon/window.js'
p3017
sS'1.17'
p3018
S'./lib/sdk/addon/window.js'
p3019
ssS'31bad860d5d9ae9341af59c782f9b45e8ecba46c302b23aac01dcdba928de960'
p3020
(dp3021
S'1.16'
p3022
S'./test/modules/tiger.js'
p3023
sS'1.17'
p3024
S'./test/modules/tiger.js'
p3025
ssS'57cb263fa5396212f6f73c7c98ded5b702acf0ba32274f40f2647155c7cad0a6'
p3026
(dp3027
S'1.17'
p3028
S'./test/addons/l10n-properties/main.js'
p3029
ssS'1f96e412fbf4020dea41a3135ccf77ff27673b74c3699d30ddad3708ea137377'
p3030
(dp3031
S'1.16'
p3032
S'./lib/sdk/deprecated/cortex.js'
p3033
sS'1.17'
p3034
S'./lib/sdk/deprecated/cortex.js'
p3035
ssS'be99a31e0d1e03c1c34ad9bc95f97cf239f0d8ce4b4781794f56c84d271732d3'
p3036
(dp3037
S'1.16'
p3038
S'./lib/sdk/tabs.js'
p3039
ssS'26b7b980bee56d139093ff84c4ec5fcfe5255e7ad0695fe9bd9e65629c67e62e'
p3040
(dp3041
S'1.16'
p3042
S'./test/test-browser-events.js'
p3043
sS'1.17'
p3044
S'./test/test-browser-events.js'
p3045
ssS'56cfdfc2477ce25daad20912abf68626aab9930be52ea46d514ced415aec8d9d'
p3046
(dp3047
S'1.16'
p3048
S'./lib/sdk/deprecated/unit-test.js'
p3049
sS'1.17'
p3050
S'./lib/sdk/deprecated/unit-test.js'
p3051
ssS'4295891d8469f7faa35974a45c6e7a4323522c0e14d6857f9edf3ad5104ddd0c'
p3052
(dp3053
S'1.16'
p3054
S'./python-lib/cuddlefish/tests/bug-652227-files/packages/explicit-lib/test/test-foo.js'
p3055
sS'1.17'
p3056
S'./python-lib/cuddlefish/tests/bug-652227-files/packages/explicit-lib/test/test-foo.js'
p3057
ssS'3584bcc49338b0c1834c11a322a56fd6b459adadd42593aabea31d6586f473b4'
p3058
(dp3059
S'1.16'
p3060
S'./lib/diffpatcher/patch.js'
p3061
sS'1.17'
p3062
S'./lib/diffpatcher/patch.js'
p3063
ssS'54059f9fc9a545d5164007daa2018f8ff6e87b3d823a629b46b5139c5db4ce3d'
p3064
(dp3065
S'1.16'
p3066
S'./test/fixtures/test-message-manager.js'
p3067
sS'1.17'
p3068
S'./test/fixtures/test-message-manager.js'
p3069
ssS'32076d83a544a6a9d85e2cf9b3735db755577eb6ddf9598e4165207aba54a67d'
p3070
(dp3071
S'1.16'
p3072
S'./test/windows/test-fennec-windows.js'
p3073
sS'1.17'
p3074
S'./test/windows/test-fennec-windows.js'
p3075
ssS'a81ec0165413a508cbe9a7952f17e3e3fc0aa2a430fee6e5d1f28733181dc414'
p3076
(dp3077
S'1.16'
p3078
S'./test/commonjs-test-adapter/asserts.js'
p3079
sS'1.17'
p3080
S'./test/commonjs-test-adapter/asserts.js'
p3081
ssS'68d76d649371c20b53bbf31740e71d9a252dc4c5e2b65603efba44b21c5eb09a'
p3082
(dp3083
S'1.16'
p3084
S'./test/addons/private-browsing-supported/test-sidebar.js'
p3085
ssS'4e2511b16445e125f510276daf6a50f621a9ae146036956dc746f3259575ef36'
p3086
(dp3087
S'1.16'
p3088
S'./lib/sdk/tabs/tabs-firefox.js'
p3089
sS'1.17'
p3090
S'./lib/sdk/tabs/tabs-firefox.js'
p3091
ssS'17f70c97806d3631d5a8760a7ebfe55d29ebfda52096633be51952028f246c77'
p3092
(dp3093
S'1.16'
p3094
S'./test/loader/fixture.js'
p3095
sS'1.17'
p3096
S'./test/loader/fixture.js'
p3097
ssS'3c81bb88fa04ac863845d25f535eb7d109ce69805edef3d2ae12383efc39ab08'
p3098
(dp3099
S'1.16'
p3100
S'./test/fixtures/native-addon-test/node_modules/test-custom-main/lib/custom-entry.js'
p3101
sS'1.17'
p3102
S'./test/fixtures/native-addon-test/node_modules/test-custom-main/lib/custom-entry.js'
p3103
ssS'2197d89743b01c47d8fae73dfbde06f1da0a0e79ab12ab81527b2061c2030913'
p3104
(dp3105
S'1.16'
p3106
S'./examples/annotator/lib/main.js'
p3107
sS'1.17'
p3108
S'./examples/annotator/lib/main.js'
p3109
ssS'403f50fbbe2fe13c6806594c03f66f66988ba0fdd3eb9951197a4c16cc61a048'
p3110
(dp3111
S'1.16'
p3112
S'./test/test-globals.js'
p3113
sS'1.17'
p3114
S'./test/test-globals.js'
p3115
ssS'914e62a513889e6e68e04b501e3552d63195dd5a284c3cda0725e74aadf6c01a'
p3116
(dp3117
S'1.16'
p3118
S'./examples/library-detector/lib/main.js'
p3119
sS'1.17'
p3120
S'./examples/library-detector/lib/main.js'
p3121
ssS'd47cc8e0fb59a999a07944bd112b25d069f284e6362087779d17ca00d4a12c50'
p3122
(dp3123
S'1.16'
p3124
S'./lib/sdk/system/xul-app.js'
p3125
sS'1.17'
p3126
S'./lib/sdk/system/xul-app.js'
p3127
ssS'c6bc153272d2778e73dcef78c7d7a9e6ad34a23d1f9b3992ca29cc261b3055a0'
p3128
(dp3129
S'1.16'
p3130
S'./test/addons/private-browsing-supported/sidebar/utils.js'
p3131
sS'1.17'
p3132
S'./test/addons/private-browsing-supported/sidebar/utils.js'
p3133
ssS'28a6b2c3885ce5f682b2d8cf41de5f652427f4507797f9695aade18dabf6d2a9'
p3134
(dp3135
S'1.16'
p3136
S'./lib/sdk/ui/button/contract.js'
p3137
ssS'068b749dfb0b6319975c29a5f91f5c92616230827c4769863c6d86403410fff4'
p3138
(dp3139
S'1.16'
p3140
S'./lib/sdk/test.js'
p3141
sS'1.17'
p3142
S'./lib/sdk/test.js'
p3143
ssS'adbcfef59fc3469cead2f19551aeb6b613e1ac3393c619cd4d58eb952a676d35'
p3144
(dp3145
S'1.16'
p3146
S'./lib/sdk/tabs/namespace.js'
p3147
sS'1.17'
p3148
S'./lib/sdk/tabs/namespace.js'
p3149
ssS'4d0e8f5309e80659130853eb02c55d270e76582230f728b8c8819b1542816a29'
p3150
(dp3151
S'1.16'
p3152
S'./lib/sdk/timers.js'
p3153
sS'1.17'
p3154
S'./lib/sdk/timers.js'
p3155
ssS'781bccf2bfe5916ee2e48b2c3ff7c2875cd6adfeb8a4f572a580b1229012380f'
p3156
(dp3157
S'1.17'
p3158
S'./lib/sdk/addon/installer.js'
p3159
ssS'e6e54ac39570f0e63e61a0168e5995da90480ea6105683ef71eb020ea01cfdf4'
p3160
(dp3161
S'1.16'
p3162
S'./lib/sdk/core/heritage.js'
p3163
sS'1.17'
p3164
S'./lib/sdk/core/heritage.js'
p3165
ssS'8704e905cb6872a6e6188331d0a93c4e13682b2257617f7f5b9ecea64883e94a'
p3166
(dp3167
S'1.16'
p3168
S'./lib/sdk/io/byte-streams.js'
p3169
sS'1.17'
p3170
S'./lib/sdk/io/byte-streams.js'
p3171
ssS'2b413bdfcee0a4173581431e8683c00130f492d86f164fb02436da39482623cd'
p3172
(dp3173
S'1.16'
p3174
S'./test/modules/red.js'
p3175
sS'1.17'
p3176
S'./test/modules/red.js'
p3177
ssS'793608c2af39121ae0542b7a324c38ec2b2a5bb0fe67753575417ee6596488c5'
p3178
(dp3179
S'1.16'
p3180
S'./test/fixtures/test-context-menu.js'
p3181
sS'1.17'
p3182
S'./test/fixtures/test-context-menu.js'
p3183
ssS'1e0f5b2a4f7b325e8335a7fb45078967bcb1efbdb20054c3760c336e851fd6cb'
p3184
(dp3185
S'1.16'
p3186
S'./test/test-buffer.js'
p3187
sS'1.17'
p3188
S'./test/test-buffer.js'
p3189
ssS'30e76882588db3d8bae6885f25c209447e82875a45835d1cca83f99cf7e8ecf3'
p3190
(dp3191
S'1.17'
p3192
S'./lib/sdk/ui/state.js'
p3193
ssS'222c821e01e872ae9f08ebb594fa110a3626c66ebd398303b158491729964999'
p3194
(dp3195
S'1.16'
p3196
S'./lib/sdk/addon/host.js'
p3197
sS'1.17'
p3198
S'./lib/sdk/addon/host.js'
p3199
ssS'c2e9c6f8b509b8f843593edaee8f9e0f902b0ce50462f64bec3d2e2ca6f41220'
p3200
(dp3201
S'1.16'
p3202
S'./test/addons/privileged-panel/data/index.html'
p3203
sS'1.17'
p3204
S'./test/addons/privileged-panel/data/index.html'
p3205
ssS'59565b4125ed397132a2ae5c709f8759e9db116d18a389e92dd957a1c3a71d05'
p3206
(dp3207
S'1.16'
p3208
S'./test/test-traceback.js'
p3209
ssS'bdd379107b50d448e4a6632425c28f04cd8ae982771cf066510a6361a6a7bd71'
p3210
(dp3211
S'1.17'
p3212
S'./lib/sdk/console/plain-text.js'
p3213
ssS'844dfe4a0f87b8b03e951d0f10c10b987033a47e20e74fb7079c01078c017641'
p3214
(dp3215
S'1.16'
p3216
S'./lib/test.js'
p3217
sS'1.17'
p3218
S'./lib/test.js'
p3219
ssS'13626a4fee7d608c250095039e0d16010175c8b2bbf787dd67d4325fd3aacf0a'
p3220
(dp3221
S'1.17'
p3222
S'./lib/sdk/notifications.js'
p3223
ssS'106edbfa4312a1a43c6f56e8a27e18c50db49b141524dc304f2291fecb8aa295'
p3224
(dp3225
S'1.16'
p3226
S'./test/fixtures/loader/cycles/b.js'
p3227
sS'1.17'
p3228
S'./test/fixtures/loader/cycles/b.js'
p3229
ssS'74d9afc2ede0d4464e3d574597ea872f0b766facdb99ac2c0c77b2aa02ed79b5'
p3230
(dp3231
S'1.16'
p3232
S'./lib/sdk/simple-prefs.js'
p3233
sS'1.17'
p3234
S'./lib/sdk/simple-prefs.js'
p3235
ssS'2fcd561012ccafd5120aac8206d2f60adab0b626a56eeff33e0a19953bf8308b'
p3236
(dp3237
S'1.16'
p3238
S'./test/fixtures/native-addon-test/dir/c.js'
p3239
sS'1.17'
p3240
S'./test/fixtures/native-addon-test/dir/c.js'
p3241
ssS'8a381c8a734e374fcd764b61059638a6da1e7edfce1b2d79a5c6faa06a14c90e'
p3242
(dp3243
S'1.17'
p3244
S'./lib/sdk/content/content-worker.js'
p3245
ssS'dfe572bd38ec99a89a29f425ce64f6a66b8afa5db7140553f991d2f4ff56ccf9'
p3246
(dp3247
S'1.17'
p3248
S'./lib/sdk/loader/sandbox.js'
p3249
ssS'791f4ae30c44f22e09af258830427b600e8666c8beec8cef993a6c9ec0cf92d6'
p3250
(dp3251
S'1.16'
p3252
S'./python-lib/cuddlefish/tests/linker-files/six/lib/unused.js'
p3253
sS'1.17'
p3254
S'./python-lib/cuddlefish/tests/linker-files/six/lib/unused.js'
p3255
ssS'd830260c8ac1083d9b86ad16e084e0dc54165808d307deaf21659d83a1c9ed4c'
p3256
(dp3257
S'1.17'
p3258
S'./test/test-content-symbiont.js'
p3259
ssS'd060b38b68328741f2e419d47d721657d145917c3fbb8e3f2e012d5809af8000'
p3260
(dp3261
S'1.16'
p3262
S'./lib/sdk/l10n/loader.js'
p3263
ssS'1c2b30d305c6d11679264cd7e2c314f94c4a0a9dcafa4e9f56a7fac695676f5a'
p3264
(dp3265
S'1.17'
p3266
S'./lib/sdk/window/utils.js'
p3267
ssS'c166eee9132a236a450afe07bafee382d20474901ba50d9c2a13333d52e89420'
p3268
(dp3269
S'1.16'
p3270
S'./test/test-addon-window.js'
p3271
sS'1.17'
p3272
S'./test/test-addon-window.js'
p3273
ssS'e82d5a975f014229f1ea29b9f3fa412ba67e9cb9e72383f7209d84bf76d7b13c'
p3274
(dp3275
S'1.16'
p3276
S'./test/test-tabs-common.js'
p3277
sS'1.17'
p3278
S'./test/test-tabs-common.js'
p3279
ssS'e1d27f05503f5f5899ac880c6bfdb6f129d9765c95aa68d9a030ae1b75a58496'
p3280
(dp3281
S'1.16'
p3282
S'./test/modules/badSecond.js'
p3283
sS'1.17'
p3284
S'./test/modules/badSecond.js'
p3285
ssS'5f10d6236e2c6aac01704524625e9212d852ff6a6ec044236dcbbc73fe4125aa'
p3286
(dp3287
S'1.16'
p3288
S'./test/test-content-events.js'
p3289
ssS'0b39cfe1aeab191a81530a58f9a25ad16732507acfd639d6bc21d3caab4b34a3'
p3290
(dp3291
S'1.16'
p3292
S'./lib/sdk/tabs/tab.js'
p3293
sS'1.17'
p3294
S'./lib/sdk/tabs/tab.js'
p3295
ssS'e5fa0e694f1eaae06d7d6f4c5a2b3ac06a109692f17a04e2a52527f68d2ae42d'
p3296
(dp3297
S'1.17'
p3298
S'./lib/sdk/clipboard.js'
p3299
ssS'721717f63510a1ddcfe97a0bc411f971a259c39d36e58e611009624307860fce'
p3300
(dp3301
S'1.16'
p3302
S'./test/fixtures/native-addon-test/node_modules/test-math/node_modules/test-subtract/index.js'
p3303
sS'1.17'
p3304
S'./test/fixtures/native-addon-test/node_modules/test-math/node_modules/test-subtract/index.js'
p3305
ssS'7cf27f4a5c104dad6ed56885056e0ae79714cb4e0707c1665ed8e3640482f95f'
p3306
(dp3307
S'1.16'
p3308
S'./lib/sdk/lang/functional.js'
p3309
ssS'7536f73026f8262c1914c68732e2a72cad12c2d87ff4bea08fc0dce17e3c37ae'
p3310
(dp3311
S'1.16'
p3312
S'./python-lib/cuddlefish/tests/linker-files/one/lib/main.js'
p3313
sS'1.17'
p3314
S'./python-lib/cuddlefish/tests/linker-files/one/lib/main.js'
p3315
ssS'ae8024e55c2d347084f0c2be4017e2ea158881ad2dd879011f22e2ad287588d8'
p3316
(dp3317
S'1.16'
p3318
S'./test/fixtures/test-iframe.html'
p3319
sS'1.17'
p3320
S'./test/fixtures/test-iframe.html'
p3321
ssS'8b6f923035926d15476ff70ac58b94bc6de8e6a212d93ff122f4a776b640484e'
p3322
(dp3323
S'1.17'
p3324
S'./test/test-system-runtime.js'
p3325
ssS'ebec652f8b3531c2874c32ee5b86c5add4623b9f9320210e021bbc02d79baae8'
p3326
(dp3327
S'1.17'
p3328
S'./test/addons/places/tests/test-places-events.js'
p3329
ssS'4ed4ef852979854add2fc6f50177915c59d188c8acd14e447e62c0d5c95e0184'
p3330
(dp3331
S'1.16'
p3332
S'./lib/sdk/deprecated/unit-test-finder.js'
p3333
sS'1.17'
p3334
S'./lib/sdk/deprecated/unit-test-finder.js'
p3335
ssS'8a1652e9169a818ecc3909dce989b47465bcf413ee2be45375cf55c08cdfc16a'
p3336
(dp3337
S'1.16'
p3338
S'./lib/sdk/ui/sidebar/actions.js'
p3339
sS'1.17'
p3340
S'./lib/sdk/ui/sidebar/actions.js'
p3341
ssS'9ea9e616437a1cc15e8f90e5e9c8c6826033fdd2ac1bb9c5b74bc1c78c1de2cf'
p3342
(dp3343
S'1.16'
p3344
S'./test/test-functional.js'
p3345
ssS'4fa045d24be00f646efbb63438832b8ea68fb845f4f6ed3d80fd1846549b1e75'
p3346
(dp3347
S'1.16'
p3348
S'./test/addons/self/main.js'
p3349
ssS'78abe8d319ddaae86ea13badf967ac5c55d2a3ab09765601efe1480222e9c8c0'
p3350
(dp3351
S'1.16'
p3352
S'./lib/diffpatcher/test/index.js'
p3353
sS'1.17'
p3354
S'./lib/diffpatcher/test/index.js'
p3355
ssS'57998265762a3614e41dfb43c41f488fffd72c2c7e7894f8cbfadf04e1c667f8'
p3356
(dp3357
S'1.16'
p3358
S'./lib/sdk/test/memory.js'
p3359
sS'1.17'
p3360
S'./lib/sdk/test/memory.js'
p3361
ssS'90cb29c1122b3a27d95bd734f9e49db705da931cd58c1a319ffeca74a3983319'
p3362
(dp3363
S'1.16'
p3364
S'./test/modules/traditional2.js'
p3365
sS'1.17'
p3366
S'./test/modules/traditional2.js'
p3367
ssS'b2db917800c544913974702e18f2cb4e752ba8d7343b79f082dd91c01f529cc5'
p3368
(dp3369
S'1.16'
p3370
S'./test/test-addon-installer.js'
p3371
sS'1.17'
p3372
S'./test/test-addon-installer.js'
p3373
ssS'a9dcfabc3b56d5531f87ab6e9727b3688153d3f61e89bcb1b66cef1ecb3ee79b'
p3374
(dp3375
S'1.16'
p3376
S'./test/addons/simple-prefs-l10n/main.js'
p3377
ssS'6a8bcc6cdecee2a40d4678f8f4bba2ad08bd3da97e32cd1bedbec8630db48855'
p3378
(dp3379
S'1.17'
p3380
S'./test/test-ui-action-button.js'
p3381
ssS'5ee070b25f6bde36b569b9c931531f78b0c49dfd6776b84851b62ff9424e1fd5'
p3382
(dp3383
S'1.16'
p3384
S'./examples/reddit-panel/data/panel.js'
p3385
sS'1.17'
p3386
S'./examples/reddit-panel/data/panel.js'
p3387
ssS'74791c67a59a442db50f4f6926e8d2100751fc7492ff721831c19d30b693e382'
p3388
(dp3389
S'1.16'
p3390
S'./test/fixtures/test-iframe.js'
p3391
sS'1.17'
p3392
S'./test/fixtures/test-iframe.js'
p3393
ssS'3758389bb380c7e932dd85e3be05c48adcd5f18325caf0576647f623898ec415'
p3394
(dp3395
S'1.17'
p3396
S'./lib/sdk/ui/button/toggle.js'
p3397
ssS'd96bf0793a67e7357f009890c9e1890fb397c96ad62e5b51f375a86832bc2f46'
p3398
(dp3399
S'1.17'
p3400
S'./lib/sdk/system/child_process.js'
p3401
ssS'9fd96f425849da67fa2e177041b158c06221fb0fb41e9a97110cb70f77883d80'
p3402
(dp3403
S'1.16'
p3404
S'./test/test-event-target.js'
p3405
sS'1.17'
p3406
S'./test/test-event-target.js'
p3407
ssS'9a2734ef79a492a0c946d8158474b52250218a58ff3a5871271d358565a32c1c'
p3408
(dp3409
S'1.16'
p3410
S'./lib/sdk/fs/path.js'
p3411
sS'1.17'
p3412
S'./lib/sdk/fs/path.js'
p3413
ssS'745adf0966debbb411958bb5c92c4a3b1f8c2104b3847c583db9910096add757'
p3414
(dp3415
S'1.16'
p3416
S'./test/modules/async1.js'
p3417
sS'1.17'
p3418
S'./test/modules/async1.js'
p3419
ssS'98b2708c1b2bc3d11ab0f7c1f0a96db1eb601d359bb24a782b0bb5c9213c455d'
p3420
(dp3421
S'1.16'
p3422
S'./test/fixtures/loader/exceptions/boomer.js'
p3423
sS'1.17'
p3424
S'./test/fixtures/loader/exceptions/boomer.js'
p3425
ssS'b20a7d03c20edb4a10a70935cd62c94ebe8534e431e4ebc160662cb52facfc31'
p3426
(dp3427
S'1.16'
p3428
S'./test/addons/private-browsing-supported/test-windows.js'
p3429
ssS'ba385484127500e1810109cf0f5f9c534053173c3c5f9d81bb109029ed5ec9b8'
p3430
(dp3431
S'1.16'
p3432
S'./lib/sdk/url/utils.js'
p3433
sS'1.17'
p3434
S'./lib/sdk/url/utils.js'
p3435
ssS'c0c7cc7412e8b0c75887e7ae08edcb5b3544fe3d7476f86ade76b8ea3e3ceac9'
p3436
(dp3437
S'1.16'
p3438
S'./test/fixtures/native-addon-test/node_modules/test-math/node_modules/test-add/index.js'
p3439
sS'1.17'
p3440
S'./test/fixtures/native-addon-test/node_modules/test-math/node_modules/test-add/index.js'
p3441
ssS'5b30df756688d1735a0c0744a426b7d4cb07959f6251d9aa2d36765990fc3fd9'
p3442
(dp3443
S'1.16'
p3444
S'./lib/sdk/input/customizable-ui.js'
p3445
ssS'1f9b82abd72d1b289570043ec4b97b7e2a9e9a88a159b5e415d25406eb90bac9'
p3446
(dp3447
S'1.17'
p3448
S'./test/test-page-mod.js'
p3449
ssS'4638f74589eba887b6ce6fb8749dce87b3089f78ecffdda3df73d495179f7778'
p3450
(dp3451
S'1.16'
p3452
S'./lib/sdk/places/history.js'
p3453
sS'1.17'
p3454
S'./lib/sdk/places/history.js'
p3455
ssS'bf00958cd675c93bbf4da78a33aaf48e8b43469a1e24fe858279193b315d358c'
p3456
(dp3457
S'1.16'
p3458
S'./lib/sdk/deprecated/symbiont.js'
p3459
sS'1.17'
p3460
S'./lib/sdk/deprecated/symbiont.js'
p3461
ssS'170f3a4f78245e2e49b490bce47d75504e5da333f20619aec8f8b2ad4cab6414'
p3462
(dp3463
S'1.16'
p3464
S'./test/fixtures/native-addon-test/dir/b.js'
p3465
sS'1.17'
p3466
S'./test/fixtures/native-addon-test/dir/b.js'
p3467
ssS'd07de07d3abdc5138d7b7d631e9d4eea4f26417d09995a8d45e9443feeb778ed'
p3468
(dp3469
S'1.16'
p3470
S'./test/test-rules.js'
p3471
sS'1.17'
p3472
S'./test/test-rules.js'
p3473
ssS'236b6577b925e40957d09b954a3d9702496a34621a2ac2428fe5b326124c4cf3'
p3474
(dp3475
S'1.16'
p3476
S'./lib/sdk/tabs/utils.js'
p3477
ssS'c5a20d44909f1a1a9a87237d28c0681e85e422dcfbb6988b26a9a0315a358396'
p3478
(dp3479
S'1.16'
p3480
S'./lib/sdk/ui/toolbar.js'
p3481
ssS'f88b5359062b391b35047b1c8edc3d96a72a02e2474dae9458bf188b35b3d8d7'
p3482
(dp3483
S'1.16'
p3484
S'./lib/sdk/places/contract.js'
p3485
sS'1.17'
p3486
S'./lib/sdk/places/contract.js'
p3487
ssS'17a622f701bacee87e1d2b85c0c8eb2062afa7869278313283fe668456ca2bb4'
p3488
(dp3489
S'1.16'
p3490
S'./lib/sdk/ui/button/action.js'
p3491
ssS'125d2bb3582e4441dc3d824fb8917d2fa1e028c9a9517bb522149a26bdde7fc2'
p3492
(dp3493
S'1.17'
p3494
S'./lib/sdk/l10n/html.js'
p3495
ssS'ea419f141566e4d9fc836c7e425544bc354b1ba8db12b9b42df77799186e9f04'
p3496
(dp3497
S'1.16'
p3498
S'./lib/diffpatcher/test/common.js'
p3499
sS'1.17'
p3500
S'./lib/diffpatcher/test/common.js'
p3501
ssS'89fdfefe61e41e3c393ba4e16048cb23a7cec98a95e53203a59dc4db82c22319'
p3502
(dp3503
S'1.16'
p3504
S'./test/test-memory.js'
p3505
sS'1.17'
p3506
S'./test/test-memory.js'
p3507
ssS'f55bb4153137b3e70e4aab762bc9d3b2e67e0ea7a58fedcb9de0cffaae8d8020'
p3508
(dp3509
S'1.16'
p3510
S'./examples/annotator/data/list/annotation-list.html'
p3511
sS'1.17'
p3512
S'./examples/annotator/data/list/annotation-list.html'
p3513
ssS'70b20cdb5836fff0d56ffb348d3e8c540ba682686f92d8fbc2620269bac51aad'
p3514
(dp3515
S'1.17'
p3516
S'./lib/sdk/page-mod.js'
p3517
ssS'65981694731f7cd26f1d91e711319fda0afa8f3ac3c3dcf38b54947868cbf8eb'
p3518
(dp3519
S'1.17'
p3520
S'./test/test-traceback.js'
p3521
ssS'0ad331ddee2fa8917d55486e547cb9e6106e7566d48f65df0a78b27904983376'
p3522
(dp3523
S'1.16'
p3524
S'./test/modules/pollux.js'
p3525
sS'1.17'
p3526
S'./test/modules/pollux.js'
p3527
ssS'cebb4d2c6756b4e3529e1901dd653f7e1141f90ac5c1286368800eb6674e686c'
p3528
(dp3529
S'1.17'
p3530
S'./lib/sdk/core/observer.js'
p3531
ssS'a952005a441a24aec78ff85e244fec05c71132df52035adce5cfbd78605eece1'
p3532
(dp3533
S'1.16'
p3534
S'./test/test-tab-observer.js'
p3535
sS'1.17'
p3536
S'./test/test-tab-observer.js'
p3537
ssS'26fc6c49656467aeee5be05aa2d8d2ed22aa2c39fe0c7516fd2f3a1ff62f327e'
p3538
(dp3539
S'1.16'
p3540
S'./test/fixtures/native-addon-test/index.js'
p3541
sS'1.17'
p3542
S'./test/fixtures/native-addon-test/index.js'
p3543
ssS'6a7066fc9d365b87483a5cf3e636fd6da8aefd9068a176f32930e36c5b6fb2aa'
p3544
(dp3545
S'1.16'
p3546
S'./lib/sdk/ui/toolbar/view.js'
p3547
sS'1.17'
p3548
S'./lib/sdk/ui/toolbar/view.js'
p3549
ssS'c3b4ccdf83ee049f9ccbc2fd77d7b5e7eb771c3fc242535ecd081540a3087bce'
p3550
(dp3551
S'1.16'
p3552
S'./lib/sdk/dom/events/keys.js'
p3553
sS'1.17'
p3554
S'./lib/sdk/dom/events/keys.js'
p3555
ssS'e16695fc6545005fc58f785c36d9879cec73f43c5a54e19d61b3550038310e06'
p3556
(dp3557
S'1.16'
p3558
S'./lib/sdk/ui/sidebar/utils.js'
p3559
sS'1.17'
p3560
S'./lib/sdk/ui/sidebar/utils.js'
p3561
ssS'da407c8ba4a067ba08da81b17cdca5c29221a4081f1d3169ef4f70a08cf20308'
p3562
(dp3563
S'1.17'
p3564
S'./test/addons/l10n/main.js'
p3565
ssS'487d1a46340cad476c636848ec23346558ba9f474687484b68c2838b1592eb4f'
p3566
(dp3567
S'1.16'
p3568
S'./examples/library-detector/data/panel.html'
p3569
sS'1.17'
p3570
S'./examples/library-detector/data/panel.html'
p3571
ssS'f34bc98be581529d03c134ea1608c5c8e39314d92f15c93569a2923cd2bf0a25'
p3572
(dp3573
S'1.16'
p3574
S'./test/test-ui-toolbar.js'
p3575
ssS'023b0fbb9bc21fb2b7e23b46ba4cc22735b723a36a3c7fdb7bc6b14bbaef9e9a'
p3576
(dp3577
S'1.16'
p3578
S'./test/fixtures/index.html'
p3579
sS'1.17'
p3580
S'./test/fixtures/index.html'
p3581
ssS'81aea238dc108c80a1c25ef743d00bfbef6cb00329e5960b4de7e41533605b11'
p3582
(dp3583
S'1.17'
p3584
S'./lib/sdk/widget.js'
p3585
ssS'849b36ab5c5d35ac5dfd2ec2847502904957c8a5239623e1d9f1022cd800d195'
p3586
(dp3587
S'1.17'
p3588
S'./lib/sdk/tabs/tab-fennec.js'
p3589
ssS'18bfeb430f1c5941b479b6a0fd52678c7174f084ddf66ea37df8281e44c25819'
p3590
(dp3591
S'1.17'
p3592
S'./lib/sdk/windows/tabs-fennec.js'
p3593
ssS'd681c312f3bee573801ee14c6604383eaa4bfeb0072aa1cd7d091bc17b3438ea'
p3594
(dp3595
S'1.16'
p3596
S'./test/test-window-utils-private-browsing.js'
p3597
ssS'd72ea141f0f98342110f08f24882d848ea672687835a88b1d0e6ca534b0e8429'
p3598
(dp3599
S'1.16'
p3600
S'./lib/diffpatcher/test/diff.js'
p3601
sS'1.17'
p3602
S'./lib/diffpatcher/test/diff.js'
p3603
ssS'ff91ad40ce423f3feaae34a51aa7b40412d3aba4337911fb16e2563dc310246f'
p3604
(dp3605
S'1.16'
p3606
S'./test/modules/subtract.js'
p3607
sS'1.17'
p3608
S'./test/modules/subtract.js'
p3609
ssS'c851515dd7895ac1ee88554cf00cc9dbbd9bb10864eaaa96ed4102336cffa94a'
p3610
(dp3611
S'1.16'
p3612
S'./lib/sdk/deprecated/traits/core.js'
p3613
sS'1.17'
p3614
S'./lib/sdk/deprecated/traits/core.js'
p3615
ssS'7a62168d31600eb4f852c07e2f498a27afa316d29a8fa698f6aa658fb4a87abe'
p3616
(dp3617
S'1.16'
p3618
S'./test/test-set-exports.js'
p3619
sS'1.17'
p3620
S'./test/test-set-exports.js'
p3621
ssS'1627161cbb2ab14950a747f831ada3a782b02936f3a51439c19c441abe9daf1b'
p3622
(dp3623
S'1.16'
p3624
S'./test/addons/private-browsing-supported/main.js'
p3625
sS'1.17'
p3626
S'./test/addons/private-browsing-supported/main.js'
p3627
ssS'44f5925c64a3f0cf2a3a6961598e2650e1c8fae15743ae72b65a82e08ef8412e'
p3628
(dp3629
S'1.16'
p3630
S'./test/fixtures/sandbox-complex-character.js'
p3631
sS'1.17'
p3632
S'./test/fixtures/sandbox-complex-character.js'
p3633
ssS'3ad84743dcac6523692b890c0bf5b8bc28fd95e155862e0fa94b1914ead4bd12'
p3634
(dp3635
S'1.17'
p3636
S'./test/test-querystring.js'
p3637
ssS'd67429c81fd0301c132961b3b7537a15da9a69753e028ea3a60342348621e63d'
p3638
(dp3639
S'1.16'
p3640
S'./test/traits/utils.js'
p3641
sS'1.17'
p3642
S'./test/traits/utils.js'
p3643
ssS'7d158315a60c5d2b6a5c52cbef85b3d9c3124a0d863da90bb7b75c16893ade2e'
p3644
(dp3645
S'1.16'
p3646
S'./test/addons/places/tests/test-places-bookmarks.js'
p3647
sS'1.17'
p3648
S'./test/addons/places/tests/test-places-bookmarks.js'
p3649
ssS'66b4e46e66f0eb3d4cbd9a5185f787ca287779e09d523e1a5a1e50811da12b56'
p3650
(dp3651
S'1.16'
p3652
S'./test/test-base64.js'
p3653
sS'1.17'
p3654
S'./test/test-base64.js'
p3655
ssS'c32a4d13cc5c406e1b7cbacd053de1fe4953e6d40c916b627be2ce8a62b0a78b'
p3656
(dp3657
S'1.16'
p3658
S'./lib/sdk/worker/utils.js'
p3659
sS'1.17'
p3660
S'./lib/sdk/worker/utils.js'
p3661
ssS'a607225044b02f1efd32b752f113cf4d1f2375180b8f8a513ddab4713a14ea45'
p3662
(dp3663
S'1.16'
p3664
S'./test/tabs/test-firefox-tabs.js'
p3665
ssS'9da3b549e9da4215cdf7efc4b4be9ccd1b0fc191ef32a1629958c3ecb0d77612'
p3666
(dp3667
S'1.16'
p3668
S'./lib/sdk/simple-storage.js'
p3669
ss.ccopy_reg
_reconstructor
p0
(cvalidator.version
Version
p1
c__builtin__
object
p2
Ntp3
Rp4
(dp5
S'parts'
p6
(lp7
g0
(cvalidator.version
VersionPart
p8
g2
Ntp9
Rp10
(dp11
S'_part'
p12
S'1'
p13
sS'numA'
p14
I1
sS'strB'
p15
S''
p16
sbag0
(g8
g2
Ntp17
Rp18
(dp19
g12
S'17'
p20
sg14
I17
sg15
g16
sbasS'_version'
p21
S'1.17'
p22
sb.